
========================================================================

** ELF Header Information

    File Name: C:\Users\Administrator\Desktop\QX8001-AT\ДњТы\M0_uart_iic_spi_Final\test_uart\output\test_app.axf

    Machine class: ELFCLASS32 (32-bit)
    Data encoding: ELFDATA2LSB (Little endian)
    Header version: EV_CURRENT (Current version)
    Operating System ABI: none
    ABI Version: 0
    File Type: ET_EXEC (Executable) (2)
    Machine: EM_ARM (ARM)

    Image Entry point: 0x200000b1
    Flags: EF_ARM_HASENTRY (0x05000002)

    ARM ELF revision: 5 (ABI version 2)

    Built with
    Component: ARM Compiler 5.04 update 1 (build 49) Tool: armasm [5040049]
    Component: ARM Compiler 5.04 update 1 (build 49) Tool: armlink [5040049]

    Header size: 52 bytes (0x34)
    Program header entry size: 32 bytes (0x20)
    Section header entry size: 40 bytes (0x28)

    Program header entries: 1
    Section header entries: 18

    Program header offset: 63004 (0x0000f61c)
    Section header offset: 63036 (0x0000f63c)

    Section header string table index: 17

========================================================================

** Program header #0 (PT_LOAD) [PF_X + PF_W + PF_R + PF_ARM_ENTRY]
    Size : 22280 bytes (10008 bytes in file)
    Virtual address: 0x20000000 (Alignment 8)


========================================================================

** Section #1 'CODE' (SHT_PROGBITS) [SHF_ALLOC + SHF_EXECINSTR]
    Size   : 9992 bytes (alignment 4)
    Address: 0x20000000

    $d.realdata
    RESET
    __Vectors
        0x20000000:    20018ff0    ...     DCD    536973296
        0x20000004:    20000195    ...     DCD    536871317
        0x20000008:    2000019d    ...     DCD    536871325
        0x2000000c:    2000019f    ...     DCD    536871327
        0x20000010:    00000000    ....    DCD    0
        0x20000014:    00000000    ....    DCD    0
        0x20000018:    00000000    ....    DCD    0
        0x2000001c:    00000000    ....    DCD    0
        0x20000020:    00000000    ....    DCD    0
        0x20000024:    00000000    ....    DCD    0
        0x20000028:    00000000    ....    DCD    0
        0x2000002c:    200001a1    ...     DCD    536871329
        0x20000030:    00000000    ....    DCD    0
        0x20000034:    00000000    ....    DCD    0
        0x20000038:    200001a3    ...     DCD    536871331
        0x2000003c:    200001a5    ...     DCD    536871333
        0x20000040:    20001bf1    ...     DCD    536878065
        0x20000044:    20000e1f    ...     DCD    536874527
        0x20000048:    20001051    Q..     DCD    536875089
        0x2000004c:    200001a7    ...     DCD    536871335
        0x20000050:    20000293    ...     DCD    536871571
        0x20000054:    20001181    ...     DCD    536875393
        0x20000058:    200001a7    ...     DCD    536871335
        0x2000005c:    200001a7    ...     DCD    536871335
        0x20000060:    20000fb1    ...     DCD    536874929
        0x20000064:    200001a7    ...     DCD    536871335
        0x20000068:    00000000    ....    DCD    0
        0x2000006c:    00000000    ....    DCD    0
        0x20000070:    00000000    ....    DCD    0
        0x20000074:    00000000    ....    DCD    0
        0x20000078:    00000000    ....    DCD    0
        0x2000007c:    00000000    ....    DCD    0
        0x20000080:    00000000    ....    DCD    0
        0x20000084:    00000000    ....    DCD    0
        0x20000088:    00000000    ....    DCD    0
        0x2000008c:    00000000    ....    DCD    0
        0x20000090:    00000000    ....    DCD    0
        0x20000094:    00000000    ....    DCD    0
        0x20000098:    00000000    ....    DCD    0
        0x2000009c:    00000000    ....    DCD    0
        0x200000a0:    00000000    ....    DCD    0
        0x200000a4:    00000000    ....    DCD    0
        0x200000a8:    00000000    ....    DCD    0
        0x200000ac:    00000000    ....    DCD    0
    $t
    !!!main
    __Vectors_End
    __main
        0x200000b0:    f000f802    ....    BL       __scatterload ; 0x200000b8
        0x200000b4:    f000f840    ..@.    BL       __rt_entry ; 0x20000138
    !!!scatter
    __scatterload
    __scatterload_rt2
    __scatterload_rt2_thumb_only
        0x200000b8:    a00c        ..      ADR      r0,{pc}+0x34 ; 0x200000ec
        0x200000ba:    c830        0.      LDM      r0!,{r4,r5}
        0x200000bc:    3808        .8      SUBS     r0,r0,#8
        0x200000be:    1824        $.      ADDS     r4,r4,r0
        0x200000c0:    182d        -.      ADDS     r5,r5,r0
        0x200000c2:    46a2        .F      MOV      r10,r4
        0x200000c4:    1e67        g.      SUBS     r7,r4,#1
        0x200000c6:    46ab        .F      MOV      r11,r5
    __scatterload_null
        0x200000c8:    4654        TF      MOV      r4,r10
        0x200000ca:    465d        ]F      MOV      r5,r11
        0x200000cc:    42ac        .B      CMP      r4,r5
        0x200000ce:    d101        ..      BNE      0x200000d4 ; __scatterload_null + 12
        0x200000d0:    f000f832    ..2.    BL       __rt_entry ; 0x20000138
        0x200000d4:    467e        ~F      MOV      r6,pc
        0x200000d6:    3e0f        .>      SUBS     r6,r6,#0xf
        0x200000d8:    cc0f        ..      LDM      r4!,{r0-r3}
        0x200000da:    46b6        .F      MOV      lr,r6
        0x200000dc:    2601        .&      MOVS     r6,#1
        0x200000de:    4233        3B      TST      r3,r6
        0x200000e0:    d000        ..      BEQ      0x200000e4 ; __scatterload_null + 28
        0x200000e2:    1afb        ..      SUBS     r3,r7,r3
        0x200000e4:    46a2        .F      MOV      r10,r4
        0x200000e6:    46ab        .F      MOV      r11,r5
        0x200000e8:    4333        3C      ORRS     r3,r3,r6
        0x200000ea:    4718        .G      BX       r3
    $d
        0x200000ec:    000025dc    .%..    DCD    9692
        0x200000f0:    0000261c    .&..    DCD    9756
    $t
    !!handler_copy
    __scatterload_copy
        0x200000f4:    3a10        .:      SUBS     r2,r2,#0x10
        0x200000f6:    d302        ..      BCC      0x200000fe ; __scatterload_copy + 10
        0x200000f8:    c878        x.      LDM      r0!,{r3-r6}
        0x200000fa:    c178        x.      STM      r1!,{r3-r6}
        0x200000fc:    d8fa        ..      BHI      __scatterload_copy ; 0x200000f4
        0x200000fe:    0752        R.      LSLS     r2,r2,#29
        0x20000100:    d301        ..      BCC      0x20000106 ; __scatterload_copy + 18
        0x20000102:    c830        0.      LDM      r0!,{r4,r5}
        0x20000104:    c130        0.      STM      r1!,{r4,r5}
        0x20000106:    d501        ..      BPL      0x2000010c ; __scatterload_copy + 24
        0x20000108:    6804        .h      LDR      r4,[r0,#0]
        0x2000010a:    600c        .`      STR      r4,[r1,#0]
        0x2000010c:    4770        pG      BX       lr
        0x2000010e:    0000        ..      MOVS     r0,r0
    !!handler_zi
    __scatterload_zeroinit
        0x20000110:    2300        .#      MOVS     r3,#0
        0x20000112:    2400        .$      MOVS     r4,#0
        0x20000114:    2500        .%      MOVS     r5,#0
        0x20000116:    2600        .&      MOVS     r6,#0
        0x20000118:    3a10        .:      SUBS     r2,r2,#0x10
        0x2000011a:    d301        ..      BCC      0x20000120 ; __scatterload_zeroinit + 16
        0x2000011c:    c178        x.      STM      r1!,{r3-r6}
        0x2000011e:    d8fb        ..      BHI      0x20000118 ; __scatterload_zeroinit + 8
        0x20000120:    0752        R.      LSLS     r2,r2,#29
        0x20000122:    d300        ..      BCC      0x20000126 ; __scatterload_zeroinit + 22
        0x20000124:    c130        0.      STM      r1!,{r4,r5}
        0x20000126:    d500        ..      BPL      0x2000012a ; __scatterload_zeroinit + 26
        0x20000128:    600b        .`      STR      r3,[r1,#0]
        0x2000012a:    4770        pG      BX       lr
    .ARM.Collect$$libinit$$00000000
    __rt_lib_init
        0x2000012c:    b51f        ..      PUSH     {r0-r4,lr}
    .ARM.Collect$$libinit$$00000001
    __rt_lib_init_fp_1
        0x2000012e:    46c0        .F      MOV      r8,r8
        0x20000130:    46c0        .F      MOV      r8,r8
    .ARM.Collect$$libinit$$00000008
    .ARM.Collect$$libinit$$0000000A
    .ARM.Collect$$libinit$$0000000C
    .ARM.Collect$$libinit$$0000000F
    .ARM.Collect$$libinit$$00000011
    .ARM.Collect$$libinit$$00000013
    .ARM.Collect$$libinit$$00000015
    .ARM.Collect$$libinit$$00000017
    .ARM.Collect$$libinit$$00000019
    .ARM.Collect$$libinit$$0000001B
    .ARM.Collect$$libinit$$0000001D
    .ARM.Collect$$libinit$$0000001F
    .ARM.Collect$$libinit$$00000021
    .ARM.Collect$$libinit$$00000023
    .ARM.Collect$$libinit$$0000002A
    .ARM.Collect$$libinit$$0000002C
    .ARM.Collect$$libinit$$0000002E
    .ARM.Collect$$libinit$$00000030
    .ARM.Collect$$libinit$$00000031
    __rt_lib_init_alloca_1
    __rt_lib_init_argv_1
    __rt_lib_init_atexit_1
    __rt_lib_init_clock_1
    __rt_lib_init_cpp_1
    __rt_lib_init_exceptions_1
    __rt_lib_init_fp_trap_1
    __rt_lib_init_getenv_1
    __rt_lib_init_heap_1
    __rt_lib_init_lc_collate_1
    __rt_lib_init_lc_ctype_1
    __rt_lib_init_lc_monetary_1
    __rt_lib_init_lc_numeric_1
    __rt_lib_init_lc_time_1
    __rt_lib_init_rand_1
    __rt_lib_init_return
    __rt_lib_init_signal_1
    __rt_lib_init_stdio_1
    __rt_lib_init_user_alloc_1
        0x20000132:    bd1f        ..      POP      {r0-r4,pc}
    .ARM.Collect$$libshutdown$$00000000
    __rt_lib_shutdown
        0x20000134:    b510        ..      PUSH     {r4,lr}
    .ARM.Collect$$libshutdown$$00000003
    .ARM.Collect$$libshutdown$$00000006
    .ARM.Collect$$libshutdown$$00000009
    .ARM.Collect$$libshutdown$$0000000B
    .ARM.Collect$$libshutdown$$0000000E
    .ARM.Collect$$libshutdown$$0000000F
    __rt_lib_shutdown_fp_trap_1
    __rt_lib_shutdown_heap_1
    __rt_lib_shutdown_return
    __rt_lib_shutdown_signal_1
    __rt_lib_shutdown_stdio_1
    __rt_lib_shutdown_user_alloc_1
        0x20000136:    bd10        ..      POP      {r4,pc}
    .ARM.Collect$$rtentry$$00000000
    .ARM.Collect$$rtentry$$00000002
    .ARM.Collect$$rtentry$$00000004
    __rt_entry
    __rt_entry_presh_1
    __rt_entry_sh
        0x20000138:    f002fa86    ....    BL       __user_setup_stackheap ; 0x20002648
        0x2000013c:    4611        .F      MOV      r1,r2
    .ARM.Collect$$rtentry$$00000009
    .ARM.Collect$$rtentry$$0000000A
    __rt_entry_li
    __rt_entry_postsh_1
        0x2000013e:    f7fffff5    ....    BL       __rt_lib_init ; 0x2000012c
    .ARM.Collect$$rtentry$$0000000C
    .ARM.Collect$$rtentry$$0000000D
    __rt_entry_main
    __rt_entry_postli_1
        0x20000142:    f001f923    ..#.    BL       main ; 0x2000138c
        0x20000146:    f002fa9e    ....    BL       exit ; 0x20002686
    .ARM.Collect$$rtexit$$00000000
    __rt_exit
        0x2000014a:    b403        ..      PUSH     {r0,r1}
    .ARM.Collect$$rtexit$$00000002
    .ARM.Collect$$rtexit$$00000003
    __rt_exit_ls
    __rt_exit_prels_1
        0x2000014c:    f7fffff2    ....    BL       __rt_lib_shutdown ; 0x20000134
    .ARM.Collect$$rtexit$$00000004
    __rt_exit_exit
        0x20000150:    bc03        ..      POP      {r0,r1}
        0x20000152:    f002faa3    ....    BL       _sys_exit ; 0x2000269c
        0x20000156:    0000        ..      MOVS     r0,r0
    .emb_text
    __aeabi_memcpy4
    __aeabi_memcpy8
        0x20000158:    b570        p.      PUSH     {r4-r6,lr}
        0x2000015a:    4605        .F      MOV      r5,r0
        0x2000015c:    460c        .F      MOV      r4,r1
        0x2000015e:    4616        .F      MOV      r6,r2
        0x20000160:    e002        ..      B        0x20000168 ; __aeabi_memcpy4 + 16
        0x20000162:    cc0f        ..      LDM      r4!,{r0-r3}
        0x20000164:    c50f        ..      STM      r5!,{r0-r3}
        0x20000166:    3e10        .>      SUBS     r6,r6,#0x10
        0x20000168:    2e10        ..      CMP      r6,#0x10
        0x2000016a:    d2fa        ..      BCS      0x20000162 ; __aeabi_memcpy4 + 10
        0x2000016c:    2e08        ..      CMP      r6,#8
        0x2000016e:    d302        ..      BCC      0x20000176 ; __aeabi_memcpy4 + 30
        0x20000170:    cc03        ..      LDM      r4!,{r0,r1}
        0x20000172:    c503        ..      STM      r5!,{r0,r1}
        0x20000174:    3e08        .>      SUBS     r6,r6,#8
        0x20000176:    2e04        ..      CMP      r6,#4
        0x20000178:    d307        ..      BCC      0x2000018a ; __aeabi_memcpy4 + 50
        0x2000017a:    cc01        ..      LDM      r4!,{r0}
        0x2000017c:    c501        ..      STM      r5!,{r0}
        0x2000017e:    1f36        6.      SUBS     r6,r6,#4
        0x20000180:    e003        ..      B        0x2000018a ; __aeabi_memcpy4 + 50
        0x20000182:    7821        !x      LDRB     r1,[r4,#0]
        0x20000184:    7029        )p      STRB     r1,[r5,#0]
        0x20000186:    1c64        d.      ADDS     r4,r4,#1
        0x20000188:    1c6d        m.      ADDS     r5,r5,#1
        0x2000018a:    1e76        v.      SUBS     r6,r6,#1
        0x2000018c:    d2f9        ..      BCS      0x20000182 ; __aeabi_memcpy4 + 42
        0x2000018e:    bd70        p.      POP      {r4-r6,pc}
    .text
    SystemInit
        0x20000190:    4770        pG      BX       lr
        0x20000192:    0000        ..      MOVS     r0,r0
    .text
    Reset_Handler
        0x20000194:    4807        .H      LDR      r0,[pc,#28] ; [0x200001b4] = 0x20000191
        0x20000196:    4780        .G      BLX      r0
        0x20000198:    4807        .H      LDR      r0,[pc,#28] ; [0x200001b8] = 0x200000b1
        0x2000019a:    4700        .G      BX       r0
    NMI_Handler
        0x2000019c:    e7fe        ..      B        NMI_Handler ; 0x2000019c
    HardFault_Handler
        0x2000019e:    e7fe        ..      B        HardFault_Handler ; 0x2000019e
    SVC_Handler
        0x200001a0:    e7fe        ..      B        SVC_Handler ; 0x200001a0
    PendSV_Handler
        0x200001a2:    e7fe        ..      B        PendSV_Handler ; 0x200001a2
    SysTick_Handler
        0x200001a4:    e7fe        ..      B        SysTick_Handler ; 0x200001a4
    CSI_IRQHandler
    I2C1_IRQHandler
    TIM0_IRQHandler
    WDT0_IRQHandler
        0x200001a6:    e7fe        ..      B        CSI_IRQHandler ; 0x200001a6
    __user_initial_stackheap
        0x200001a8:    4804        .H      LDR      r0,[pc,#16] ; [0x200001bc] = 0x20017000
        0x200001aa:    4905        .I      LDR      r1,[pc,#20] ; [0x200001c0] = 0x20018ff0
        0x200001ac:    4a05        .J      LDR      r2,[pc,#20] ; [0x200001c4] = 0x20018000
        0x200001ae:    4b06        .K      LDR      r3,[pc,#24] ; [0x200001c8] = 0x20018000
        0x200001b0:    4770        pG      BX       lr
    $d
        0x200001b2:    0000        ..      DCW    0
        0x200001b4:    20000191    ...     DCD    536871313
        0x200001b8:    200000b1    ...     DCD    536871089
        0x200001bc:    20017000    .p.     DCD    536965120
        0x200001c0:    20018ff0    ...     DCD    536973296
        0x200001c4:    20018000    ...     DCD    536969216
        0x200001c8:    20018000    ...     DCD    536969216
    $t
    .text
    hs_uart_init
        0x200001cc:    b500        ..      PUSH     {lr}
        0x200001ce:    0003        ..      MOVS     r3,r0
        0x200001d0:    f002fa6b    ..k.    BL       __ARM_common_switch8 ; 0x200026aa
    $d
        0x200001d4:    0c063609    .6..    DCD    201733641
        0x200001d8:    241e1812    ...$    DCD    605952018
        0x200001dc:    0036302a    *06.    DCD    3551274
    $t
        0x200001e0:    21a9        .!      MOVS     r1,#0xa9
        0x200001e2:    4a41        AJ      LDR      r2,[pc,#260] ; [0x200002e8] = 0x40001000
        0x200001e4:    6251        Qb      STR      r1,[r2,#0x24]
        0x200001e6:    2112        .!      MOVS     r1,#0x12
        0x200001e8:    6291        .b      STR      r1,[r2,#0x28]
        0x200001ea:    e029        ).      B        0x20000240 ; hs_uart_init + 116
        0x200001ec:    2170        p!      MOVS     r1,#0x70
        0x200001ee:    4a3e        >J      LDR      r2,[pc,#248] ; [0x200002e8] = 0x40001000
        0x200001f0:    6251        Qb      STR      r1,[r2,#0x24]
        0x200001f2:    2136        6!      MOVS     r1,#0x36
        0x200001f4:    6291        .b      STR      r1,[r2,#0x28]
        0x200001f6:    e023        #.      B        0x20000240 ; hs_uart_init + 116
        0x200001f8:    2154        T!      MOVS     r1,#0x54
        0x200001fa:    4a3b        ;J      LDR      r2,[pc,#236] ; [0x200002e8] = 0x40001000
        0x200001fc:    6251        Qb      STR      r1,[r2,#0x24]
        0x200001fe:    2129        )!      MOVS     r1,#0x29
        0x20000200:    6291        .b      STR      r1,[r2,#0x28]
        0x20000202:    e01d        ..      B        0x20000240 ; hs_uart_init + 116
        0x20000204:    212a        *!      MOVS     r1,#0x2a
        0x20000206:    4a38        8J      LDR      r2,[pc,#224] ; [0x200002e8] = 0x40001000
        0x20000208:    6251        Qb      STR      r1,[r2,#0x24]
        0x2000020a:    2115        .!      MOVS     r1,#0x15
        0x2000020c:    6291        .b      STR      r1,[r2,#0x28]
        0x2000020e:    e017        ..      B        0x20000240 ; hs_uart_init + 116
        0x20000210:    2125        %!      MOVS     r1,#0x25
        0x20000212:    4a35        5J      LDR      r2,[pc,#212] ; [0x200002e8] = 0x40001000
        0x20000214:    6251        Qb      STR      r1,[r2,#0x24]
        0x20000216:    2134        4!      MOVS     r1,#0x34
        0x20000218:    6291        .b      STR      r1,[r2,#0x28]
        0x2000021a:    e011        ..      B        0x20000240 ; hs_uart_init + 116
        0x2000021c:    211c        .!      MOVS     r1,#0x1c
        0x2000021e:    4a32        2J      LDR      r2,[pc,#200] ; [0x200002e8] = 0x40001000
        0x20000220:    6251        Qb      STR      r1,[r2,#0x24]
        0x20000222:    210e        .!      MOVS     r1,#0xe
        0x20000224:    6291        .b      STR      r1,[r2,#0x28]
        0x20000226:    e00b        ..      B        0x20000240 ; hs_uart_init + 116
        0x20000228:    2115        .!      MOVS     r1,#0x15
        0x2000022a:    4a2f        /J      LDR      r2,[pc,#188] ; [0x200002e8] = 0x40001000
        0x2000022c:    6251        Qb      STR      r1,[r2,#0x24]
        0x2000022e:    210a        .!      MOVS     r1,#0xa
        0x20000230:    6291        .b      STR      r1,[r2,#0x28]
        0x20000232:    e005        ..      B        0x20000240 ; hs_uart_init + 116
        0x20000234:    210e        .!      MOVS     r1,#0xe
        0x20000236:    4a2c        ,J      LDR      r2,[pc,#176] ; [0x200002e8] = 0x40001000
        0x20000238:    6251        Qb      STR      r1,[r2,#0x24]
        0x2000023a:    2106        .!      MOVS     r1,#6
        0x2000023c:    6291        .b      STR      r1,[r2,#0x28]
        0x2000023e:    bf00        ..      NOP      
        0x20000240:    bf00        ..      NOP      
        0x20000242:    2103        .!      MOVS     r1,#3
        0x20000244:    0209        ..      LSLS     r1,r1,#8
        0x20000246:    4a28        (J      LDR      r2,[pc,#160] ; [0x200002e8] = 0x40001000
        0x20000248:    6311        .c      STR      r1,[r2,#0x30]
        0x2000024a:    2124        $!      MOVS     r1,#0x24
        0x2000024c:    6351        Qc      STR      r1,[r2,#0x34]
        0x2000024e:    2160        `!      MOVS     r1,#0x60
        0x20000250:    62d1        .b      STR      r1,[r2,#0x2c]
        0x20000252:    2110        .!      MOVS     r1,#0x10
        0x20000254:    6391        .c      STR      r1,[r2,#0x38]
        0x20000256:    4611        .F      MOV      r1,r2
        0x20000258:    6b09        .k      LDR      r1,[r1,#0x30]
        0x2000025a:    2201        ."      MOVS     r2,#1
        0x2000025c:    4311        .C      ORRS     r1,r1,r2
        0x2000025e:    4a22        "J      LDR      r2,[pc,#136] ; [0x200002e8] = 0x40001000
        0x20000260:    6311        .c      STR      r1,[r2,#0x30]
        0x20000262:    bd00        ..      POP      {pc}
    hs_uart_send
        0x20000264:    4920         I      LDR      r1,[pc,#128] ; [0x200002e8] = 0x40001000
        0x20000266:    6008        .`      STR      r0,[r1,#0]
        0x20000268:    bf00        ..      NOP      
        0x2000026a:    491f        .I      LDR      r1,[pc,#124] ; [0x200002e8] = 0x40001000
        0x2000026c:    6989        .i      LDR      r1,[r1,#0x18]
        0x2000026e:    2280        ."      MOVS     r2,#0x80
        0x20000270:    4011        .@      ANDS     r1,r1,r2
        0x20000272:    2900        .)      CMP      r1,#0
        0x20000274:    d0f9        ..      BEQ      0x2000026a ; hs_uart_send + 6
        0x20000276:    4770        pG      BX       lr
    hs_uart_send_str
        0x20000278:    b510        ..      PUSH     {r4,lr}
        0x2000027a:    4603        .F      MOV      r3,r0
        0x2000027c:    460c        .F      MOV      r4,r1
        0x2000027e:    e003        ..      B        0x20000288 ; hs_uart_send_str + 16
        0x20000280:    7818        .x      LDRB     r0,[r3,#0]
        0x20000282:    f7ffffef    ....    BL       hs_uart_send ; 0x20000264
        0x20000286:    1c5b        [.      ADDS     r3,r3,#1
        0x20000288:    4620         F      MOV      r0,r4
        0x2000028a:    1e64        d.      SUBS     r4,r4,#1
        0x2000028c:    2800        .(      CMP      r0,#0
        0x2000028e:    d1f7        ..      BNE      0x20000280 ; hs_uart_send_str + 8
        0x20000290:    bd10        ..      POP      {r4,pc}
    UART0_IRQHandler
        0x20000292:    4915        .I      LDR      r1,[pc,#84] ; [0x200002e8] = 0x40001000
        0x20000294:    6809        .h      LDR      r1,[r1,#0]
        0x20000296:    b2c8        ..      UXTB     r0,r1
        0x20000298:    4914        .I      LDR      r1,[pc,#80] ; [0x200002ec] = 0x20004010
        0x2000029a:    4a15        .J      LDR      r2,[pc,#84] ; [0x200002f0] = 0x20004004
        0x2000029c:    6812        .h      LDR      r2,[r2,#0]
        0x2000029e:    5488        .T      STRB     r0,[r1,r2]
        0x200002a0:    4913        .I      LDR      r1,[pc,#76] ; [0x200002f0] = 0x20004004
        0x200002a2:    6809        .h      LDR      r1,[r1,#0]
        0x200002a4:    1c49        I.      ADDS     r1,r1,#1
        0x200002a6:    4a12        .J      LDR      r2,[pc,#72] ; [0x200002f0] = 0x20004004
        0x200002a8:    6011        .`      STR      r1,[r2,#0]
        0x200002aa:    4910        .I      LDR      r1,[pc,#64] ; [0x200002ec] = 0x20004010
        0x200002ac:    7809        .x      LDRB     r1,[r1,#0]
        0x200002ae:    29e0        .)      CMP      r1,#0xe0
        0x200002b0:    d110        ..      BNE      0x200002d4 ; UART0_IRQHandler + 66
        0x200002b2:    490e        .I      LDR      r1,[pc,#56] ; [0x200002ec] = 0x20004010
        0x200002b4:    7849        Ix      LDRB     r1,[r1,#1]
        0x200002b6:    290e        .)      CMP      r1,#0xe
        0x200002b8:    d10c        ..      BNE      0x200002d4 ; UART0_IRQHandler + 66
        0x200002ba:    490c        .I      LDR      r1,[pc,#48] ; [0x200002ec] = 0x20004010
        0x200002bc:    7889        .x      LDRB     r1,[r1,#2]
        0x200002be:    0209        ..      LSLS     r1,r1,#8
        0x200002c0:    4a0a        .J      LDR      r2,[pc,#40] ; [0x200002ec] = 0x20004010
        0x200002c2:    78d2        .x      LDRB     r2,[r2,#3]
        0x200002c4:    4311        .C      ORRS     r1,r1,r2
        0x200002c6:    4a0a        .J      LDR      r2,[pc,#40] ; [0x200002f0] = 0x20004004
        0x200002c8:    6812        .h      LDR      r2,[r2,#0]
        0x200002ca:    4291        .B      CMP      r1,r2
        0x200002cc:    d102        ..      BNE      0x200002d4 ; UART0_IRQHandler + 66
        0x200002ce:    2101        .!      MOVS     r1,#1
        0x200002d0:    4a08        .J      LDR      r2,[pc,#32] ; [0x200002f4] = 0x20004000
        0x200002d2:    7011        .p      STRB     r1,[r2,#0]
        0x200002d4:    4904        .I      LDR      r1,[pc,#16] ; [0x200002e8] = 0x40001000
        0x200002d6:    3140        @1      ADDS     r1,r1,#0x40
        0x200002d8:    6849        Ih      LDR      r1,[r1,#4]
        0x200002da:    2210        ."      MOVS     r2,#0x10
        0x200002dc:    4311        .C      ORRS     r1,r1,r2
        0x200002de:    4a02        .J      LDR      r2,[pc,#8] ; [0x200002e8] = 0x40001000
        0x200002e0:    3240        @2      ADDS     r2,r2,#0x40
        0x200002e2:    6051        Q`      STR      r1,[r2,#4]
        0x200002e4:    4770        pG      BX       lr
    $d
        0x200002e6:    0000        ..      DCW    0
        0x200002e8:    40001000    ...@    DCD    1073745920
        0x200002ec:    20004010    .@.     DCD    536887312
        0x200002f0:    20004004    .@.     DCD    536887300
        0x200002f4:    20004000    .@.     DCD    536887296
    $t
    .text
    ar0237_init
        0x200002f8:    b510        ..      PUSH     {r4,lr}
        0x200002fa:    2004        .       MOVS     r0,#4
        0x200002fc:    49fe        .I      LDR      r1,[pc,#1016] ; [0x200006f8] = 0x400093c0
        0x200002fe:    6288        .b      STR      r0,[r1,#0x28]
        0x20000300:    2001        .       MOVS     r0,#1
        0x20000302:    49fe        .I      LDR      r1,[pc,#1016] ; [0x200006fc] = 0x40000040
        0x20000304:    6188        .a      STR      r0,[r1,#0x18]
        0x20000306:    48fe        .H      LDR      r0,[pc,#1016] ; [0x20000700] = 0x40006400
        0x20000308:    6800        .h      LDR      r0,[r0,#0]
        0x2000030a:    2103        .!      MOVS     r1,#3
        0x2000030c:    4308        .C      ORRS     r0,r0,r1
        0x2000030e:    49fc        .I      LDR      r1,[pc,#1008] ; [0x20000700] = 0x40006400
        0x20000310:    6008        .`      STR      r0,[r1,#0]
        0x20000312:    48fc        .H      LDR      r0,[pc,#1008] ; [0x20000704] = 0x40006000
        0x20000314:    6880        .h      LDR      r0,[r0,#8]
        0x20000316:    2102        .!      MOVS     r1,#2
        0x20000318:    4388        .C      BICS     r0,r0,r1
        0x2000031a:    49fa        .I      LDR      r1,[pc,#1000] ; [0x20000704] = 0x40006000
        0x2000031c:    6088        .`      STR      r0,[r1,#8]
        0x2000031e:    4608        .F      MOV      r0,r1
        0x20000320:    6840        @h      LDR      r0,[r0,#4]
        0x20000322:    2101        .!      MOVS     r1,#1
        0x20000324:    4308        .C      ORRS     r0,r0,r1
        0x20000326:    49f7        .I      LDR      r1,[pc,#988] ; [0x20000704] = 0x40006000
        0x20000328:    6048        H`      STR      r0,[r1,#4]
        0x2000032a:    4608        .F      MOV      r0,r1
        0x2000032c:    6840        @h      LDR      r0,[r0,#4]
        0x2000032e:    0840        @.      LSRS     r0,r0,#1
        0x20000330:    0040        @.      LSLS     r0,r0,#1
        0x20000332:    6048        H`      STR      r0,[r1,#4]
        0x20000334:    48f4        .H      LDR      r0,[pc,#976] ; [0x20000708] = 0xf4240
        0x20000336:    f000fded    ....    BL       delay ; 0x20000f14
        0x2000033a:    48f2        .H      LDR      r0,[pc,#968] ; [0x20000704] = 0x40006000
        0x2000033c:    6840        @h      LDR      r0,[r0,#4]
        0x2000033e:    2101        .!      MOVS     r1,#1
        0x20000340:    4308        .C      ORRS     r0,r0,r1
        0x20000342:    49f0        .I      LDR      r1,[pc,#960] ; [0x20000704] = 0x40006000
        0x20000344:    6048        H`      STR      r0,[r1,#4]
        0x20000346:    48f1        .H      LDR      r0,[pc,#964] ; [0x2000070c] = 0x61a80
        0x20000348:    f000fde4    ....    BL       delay ; 0x20000f14
        0x2000034c:    2101        .!      MOVS     r1,#1
        0x2000034e:    48f0        .H      LDR      r0,[pc,#960] ; [0x20000710] = 0x301a
        0x20000350:    f000ffa2    ....    BL       i2c1_wr_data ; 0x20001298
        0x20000354:    48ef        .H      LDR      r0,[pc,#956] ; [0x20000714] = 0x186a0
        0x20000356:    f000fddd    ....    BL       delay ; 0x20000f14
        0x2000035a:    49ef        .I      LDR      r1,[pc,#956] ; [0x20000718] = 0x10d8
        0x2000035c:    48ec        .H      LDR      r0,[pc,#944] ; [0x20000710] = 0x301a
        0x2000035e:    f000ff9b    ....    BL       i2c1_wr_data ; 0x20001298
        0x20000362:    2101        .!      MOVS     r1,#1
        0x20000364:    03c9        ..      LSLS     r1,r1,#15
        0x20000366:    48ea        .H      LDR      r0,[pc,#936] ; [0x20000710] = 0x301a
        0x20000368:    306e        n0      ADDS     r0,r0,#0x6e
        0x2000036a:    f000ff95    ....    BL       i2c1_wr_data ; 0x20001298
        0x2000036e:    49eb        .I      LDR      r1,[pc,#940] ; [0x2000071c] = 0x4558
        0x20000370:    48e7        .H      LDR      r0,[pc,#924] ; [0x20000710] = 0x301a
        0x20000372:    306c        l0      ADDS     r0,r0,#0x6c
        0x20000374:    f000ff90    ....    BL       i2c1_wr_data ; 0x20001298
        0x20000378:    49e9        .I      LDR      r1,[pc,#932] ; [0x20000720] = 0x72a6
        0x2000037a:    48e5        .H      LDR      r0,[pc,#916] ; [0x20000710] = 0x301a
        0x2000037c:    306c        l0      ADDS     r0,r0,#0x6c
        0x2000037e:    f000ff8b    ....    BL       i2c1_wr_data ; 0x20001298
        0x20000382:    49e8        .I      LDR      r1,[pc,#928] ; [0x20000724] = 0x4a31
        0x20000384:    48e2        .H      LDR      r0,[pc,#904] ; [0x20000710] = 0x301a
        0x20000386:    306c        l0      ADDS     r0,r0,#0x6c
        0x20000388:    f000ff86    ....    BL       i2c1_wr_data ; 0x20001298
        0x2000038c:    49e6        .I      LDR      r1,[pc,#920] ; [0x20000728] = 0x4342
        0x2000038e:    48e0        .H      LDR      r0,[pc,#896] ; [0x20000710] = 0x301a
        0x20000390:    306c        l0      ADDS     r0,r0,#0x6c
        0x20000392:    f000ff81    ....    BL       i2c1_wr_data ; 0x20001298
        0x20000396:    49e5        .I      LDR      r1,[pc,#916] ; [0x2000072c] = 0x8e03
        0x20000398:    48dd        .H      LDR      r0,[pc,#884] ; [0x20000710] = 0x301a
        0x2000039a:    306c        l0      ADDS     r0,r0,#0x6c
        0x2000039c:    f000ff7c    ..|.    BL       i2c1_wr_data ; 0x20001298
        0x200003a0:    49e3        .I      LDR      r1,[pc,#908] ; [0x20000730] = 0x2a14
        0x200003a2:    48db        .H      LDR      r0,[pc,#876] ; [0x20000710] = 0x301a
        0x200003a4:    306c        l0      ADDS     r0,r0,#0x6c
        0x200003a6:    f000ff77    ..w.    BL       i2c1_wr_data ; 0x20001298
        0x200003aa:    49dc        .I      LDR      r1,[pc,#880] ; [0x2000071c] = 0x4558
        0x200003ac:    3120         1      ADDS     r1,r1,#0x20
        0x200003ae:    48d8        .H      LDR      r0,[pc,#864] ; [0x20000710] = 0x301a
        0x200003b0:    306c        l0      ADDS     r0,r0,#0x6c
        0x200003b2:    f000ff71    ..q.    BL       i2c1_wr_data ; 0x20001298
        0x200003b6:    49df        .I      LDR      r1,[pc,#892] ; [0x20000734] = 0x7b3d
        0x200003b8:    48d5        .H      LDR      r0,[pc,#852] ; [0x20000710] = 0x301a
        0x200003ba:    306c        l0      ADDS     r0,r0,#0x6c
        0x200003bc:    f000ff6c    ..l.    BL       i2c1_wr_data ; 0x20001298
        0x200003c0:    49dd        .I      LDR      r1,[pc,#884] ; [0x20000738] = 0xff3d
        0x200003c2:    48d3        .H      LDR      r0,[pc,#844] ; [0x20000710] = 0x301a
        0x200003c4:    306c        l0      ADDS     r0,r0,#0x6c
        0x200003c6:    f000ff67    ..g.    BL       i2c1_wr_data ; 0x20001298
        0x200003ca:    49db        .I      LDR      r1,[pc,#876] ; [0x20000738] = 0xff3d
        0x200003cc:    48d0        .H      LDR      r0,[pc,#832] ; [0x20000710] = 0x301a
        0x200003ce:    306c        l0      ADDS     r0,r0,#0x6c
        0x200003d0:    f000ff62    ..b.    BL       i2c1_wr_data ; 0x20001298
        0x200003d4:    49d9        .I      LDR      r1,[pc,#868] ; [0x2000073c] = 0xea2a
        0x200003d6:    48ce        .H      LDR      r0,[pc,#824] ; [0x20000710] = 0x301a
        0x200003d8:    306c        l0      ADDS     r0,r0,#0x6c
        0x200003da:    f000ff5d    ..].    BL       i2c1_wr_data ; 0x20001298
        0x200003de:    49d8        .I      LDR      r1,[pc,#864] ; [0x20000740] = 0x43d
        0x200003e0:    48cb        .H      LDR      r0,[pc,#812] ; [0x20000710] = 0x301a
        0x200003e2:    306c        l0      ADDS     r0,r0,#0x6c
        0x200003e4:    f000ff58    ..X.    BL       i2c1_wr_data ; 0x20001298
        0x200003e8:    49cb        .I      LDR      r1,[pc,#812] ; [0x20000718] = 0x10d8
        0x200003ea:    39ae        .9      SUBS     r1,r1,#0xae
        0x200003ec:    48c8        .H      LDR      r0,[pc,#800] ; [0x20000710] = 0x301a
        0x200003ee:    306c        l0      ADDS     r0,r0,#0x6c
        0x200003f0:    f000ff52    ..R.    BL       i2c1_wr_data ; 0x20001298
        0x200003f4:    49d2        .I      LDR      r1,[pc,#840] ; [0x20000740] = 0x43d
        0x200003f6:    31ed        .1      ADDS     r1,r1,#0xed
        0x200003f8:    48c5        .H      LDR      r0,[pc,#788] ; [0x20000710] = 0x301a
        0x200003fa:    306c        l0      ADDS     r0,r0,#0x6c
        0x200003fc:    f000ff4c    ..L.    BL       i2c1_wr_data ; 0x20001298
        0x20000400:    49d0        .I      LDR      r1,[pc,#832] ; [0x20000744] = 0x1535
        0x20000402:    48c3        .H      LDR      r0,[pc,#780] ; [0x20000710] = 0x301a
        0x20000404:    306c        l0      ADDS     r0,r0,#0x6c
        0x20000406:    f000ff47    ..G.    BL       i2c1_wr_data ; 0x20001298
        0x2000040a:    49c9        .I      LDR      r1,[pc,#804] ; [0x20000730] = 0x2a14
        0x2000040c:    390f        .9      SUBS     r1,r1,#0xf
        0x2000040e:    48c0        .H      LDR      r0,[pc,#768] ; [0x20000710] = 0x301a
        0x20000410:    306c        l0      ADDS     r0,r0,#0x6c
        0x20000412:    f000ff41    ..A.    BL       i2c1_wr_data ; 0x20001298
        0x20000416:    49cc        .I      LDR      r1,[pc,#816] ; [0x20000748] = 0x3d10
        0x20000418:    48bd        .H      LDR      r0,[pc,#756] ; [0x20000710] = 0x301a
        0x2000041a:    306c        l0      ADDS     r0,r0,#0x6c
        0x2000041c:    f000ff3c    ..<.    BL       i2c1_wr_data ; 0x20001298
        0x20000420:    49be        .I      LDR      r1,[pc,#760] ; [0x2000071c] = 0x4558
        0x20000422:    48bb        .H      LDR      r0,[pc,#748] ; [0x20000710] = 0x301a
        0x20000424:    306c        l0      ADDS     r0,r0,#0x6c
        0x20000426:    f000ff37    ..7.    BL       i2c1_wr_data ; 0x20001298
        0x2000042a:    49c1        .I      LDR      r1,[pc,#772] ; [0x20000730] = 0x2a14
        0x2000042c:    3910        .9      SUBS     r1,r1,#0x10
        0x2000042e:    48b8        .H      LDR      r0,[pc,#736] ; [0x20000710] = 0x301a
        0x20000430:    306c        l0      ADDS     r0,r0,#0x6c
        0x20000432:    f000ff31    ..1.    BL       i2c1_wr_data ; 0x20001298
        0x20000436:    49be        .I      LDR      r1,[pc,#760] ; [0x20000730] = 0x2a14
        0x20000438:    48b5        .H      LDR      r0,[pc,#724] ; [0x20000710] = 0x301a
        0x2000043a:    306c        l0      ADDS     r0,r0,#0x6c
        0x2000043c:    f000ff2c    ..,.    BL       i2c1_wr_data ; 0x20001298
        0x20000440:    49c1        .I      LDR      r1,[pc,#772] ; [0x20000748] = 0x3d10
        0x20000442:    31ef        .1      ADDS     r1,r1,#0xef
        0x20000444:    48b2        .H      LDR      r0,[pc,#712] ; [0x20000710] = 0x301a
        0x20000446:    306c        l0      ADDS     r0,r0,#0x6c
        0x20000448:    f000ff26    ..&.    BL       i2c1_wr_data ; 0x20001298
        0x2000044c:    49be        .I      LDR      r1,[pc,#760] ; [0x20000748] = 0x3d10
        0x2000044e:    31ef        .1      ADDS     r1,r1,#0xef
        0x20000450:    48af        .H      LDR      r0,[pc,#700] ; [0x20000710] = 0x301a
        0x20000452:    306c        l0      ADDS     r0,r0,#0x6c
        0x20000454:    f000ff20    .. .    BL       i2c1_wr_data ; 0x20001298
        0x20000458:    49bb        .I      LDR      r1,[pc,#748] ; [0x20000748] = 0x3d10
        0x2000045a:    31da        .1      ADDS     r1,r1,#0xda
        0x2000045c:    48ac        .H      LDR      r0,[pc,#688] ; [0x20000710] = 0x301a
        0x2000045e:    306c        l0      ADDS     r0,r0,#0x6c
        0x20000460:    f000ff1a    ....    BL       i2c1_wr_data ; 0x20001298
        0x20000464:    49b2        .I      LDR      r1,[pc,#712] ; [0x20000730] = 0x2a14
        0x20000466:    3910        .9      SUBS     r1,r1,#0x10
        0x20000468:    48a9        .H      LDR      r0,[pc,#676] ; [0x20000710] = 0x301a
        0x2000046a:    306c        l0      ADDS     r0,r0,#0x6c
        0x2000046c:    f000ff14    ....    BL       i2c1_wr_data ; 0x20001298
        0x20000470:    49b6        .I      LDR      r1,[pc,#728] ; [0x2000074c] = 0x622a
        0x20000472:    48a7        .H      LDR      r0,[pc,#668] ; [0x20000710] = 0x301a
        0x20000474:    306c        l0      ADDS     r0,r0,#0x6c
        0x20000476:    f000ff0f    ....    BL       i2c1_wr_data ; 0x20001298
        0x2000047a:    49b5        .I      LDR      r1,[pc,#724] ; [0x20000750] = 0x288e
        0x2000047c:    48a4        .H      LDR      r0,[pc,#656] ; [0x20000710] = 0x301a
        0x2000047e:    306c        l0      ADDS     r0,r0,#0x6c
        0x20000480:    f000ff0a    ....    BL       i2c1_wr_data ; 0x20001298
        0x20000484:    2136        6!      MOVS     r1,#0x36
        0x20000486:    48a2        .H      LDR      r0,[pc,#648] ; [0x20000710] = 0x301a
        0x20000488:    306c        l0      ADDS     r0,r0,#0x6c
        0x2000048a:    f000ff05    ....    BL       i2c1_wr_data ; 0x20001298
        0x2000048e:    49a8        .I      LDR      r1,[pc,#672] ; [0x20000730] = 0x2a14
        0x20000490:    390c        .9      SUBS     r1,r1,#0xc
        0x20000492:    489f        .H      LDR      r0,[pc,#636] ; [0x20000710] = 0x301a
        0x20000494:    306c        l0      ADDS     r0,r0,#0x6c
        0x20000496:    f000feff    ....    BL       i2c1_wr_data ; 0x20001298
        0x2000049a:    49ab        .I      LDR      r1,[pc,#684] ; [0x20000748] = 0x3d10
        0x2000049c:    3154        T1      ADDS     r1,r1,#0x54
        0x2000049e:    489c        .H      LDR      r0,[pc,#624] ; [0x20000710] = 0x301a
        0x200004a0:    306c        l0      ADDS     r0,r0,#0x6c
        0x200004a2:    f000fef9    ....    BL       i2c1_wr_data ; 0x20001298
        0x200004a6:    49ab        .I      LDR      r1,[pc,#684] ; [0x20000754] = 0x7a3d
        0x200004a8:    4899        .H      LDR      r0,[pc,#612] ; [0x20000710] = 0x301a
        0x200004aa:    306c        l0      ADDS     r0,r0,#0x6c
        0x200004ac:    f000fef4    ....    BL       i2c1_wr_data ; 0x20001298
        0x200004b0:    49a3        .I      LDR      r1,[pc,#652] ; [0x20000740] = 0x43d
        0x200004b2:    1dc9        ..      ADDS     r1,r1,#7
        0x200004b4:    4896        .H      LDR      r0,[pc,#600] ; [0x20000710] = 0x301a
        0x200004b6:    306c        l0      ADDS     r0,r0,#0x6c
        0x200004b8:    f000feee    ....    BL       i2c1_wr_data ; 0x20001298
        0x200004bc:    49a6        .I      LDR      r1,[pc,#664] ; [0x20000758] = 0x2c4b
        0x200004be:    4894        .H      LDR      r0,[pc,#592] ; [0x20000710] = 0x301a
        0x200004c0:    306c        l0      ADDS     r0,r0,#0x6c
        0x200004c2:    f000fee9    ....    BL       i2c1_wr_data ; 0x20001298
        0x200004c6:    49a5        .I      LDR      r1,[pc,#660] ; [0x2000075c] = 0xa403
        0x200004c8:    4891        .H      LDR      r0,[pc,#580] ; [0x20000710] = 0x301a
        0x200004ca:    306c        l0      ADDS     r0,r0,#0x6c
        0x200004cc:    f000fee4    ....    BL       i2c1_wr_data ; 0x20001298
        0x200004d0:    4995        .I      LDR      r1,[pc,#596] ; [0x20000728] = 0x4342
        0x200004d2:    3935        59      SUBS     r1,r1,#0x35
        0x200004d4:    488e        .H      LDR      r0,[pc,#568] ; [0x20000710] = 0x301a
        0x200004d6:    306c        l0      ADDS     r0,r0,#0x6c
        0x200004d8:    f000fede    ....    BL       i2c1_wr_data ; 0x20001298
        0x200004dc:    499e        .I      LDR      r1,[pc,#632] ; [0x20000758] = 0x2c4b
        0x200004de:    31fb        .1      ADDS     r1,r1,#0xfb
        0x200004e0:    488b        .H      LDR      r0,[pc,#556] ; [0x20000710] = 0x301a
        0x200004e2:    306c        l0      ADDS     r0,r0,#0x6c
        0x200004e4:    f000fed8    ....    BL       i2c1_wr_data ; 0x20001298
        0x200004e8:    498f        .I      LDR      r1,[pc,#572] ; [0x20000728] = 0x4342
        0x200004ea:    392c        ,9      SUBS     r1,r1,#0x2c
        0x200004ec:    4888        .H      LDR      r0,[pc,#544] ; [0x20000710] = 0x301a
        0x200004ee:    306c        l0      ADDS     r0,r0,#0x6c
        0x200004f0:    f000fed2    ....    BL       i2c1_wr_data ; 0x20001298
        0x200004f4:    498e        .I      LDR      r1,[pc,#568] ; [0x20000730] = 0x2a14
        0x200004f6:    317c        |1      ADDS     r1,r1,#0x7c
        0x200004f8:    4885        .H      LDR      r0,[pc,#532] ; [0x20000710] = 0x301a
        0x200004fa:    306c        l0      ADDS     r0,r0,#0x6c
        0x200004fc:    f000fecc    ....    BL       i2c1_wr_data ; 0x20001298
        0x20000500:    4991        .I      LDR      r1,[pc,#580] ; [0x20000748] = 0x3d10
        0x20000502:    31f6        .1      ADDS     r1,r1,#0xf6
        0x20000504:    4882        .H      LDR      r0,[pc,#520] ; [0x20000710] = 0x301a
        0x20000506:    306c        l0      ADDS     r0,r0,#0x6c
        0x20000508:    f000fec6    ....    BL       i2c1_wr_data ; 0x20001298
        0x2000050c:    4988        .I      LDR      r1,[pc,#544] ; [0x20000730] = 0x2a14
        0x2000050e:    3184        .1      ADDS     r1,r1,#0x84
        0x20000510:    487f        .H      LDR      r0,[pc,#508] ; [0x20000710] = 0x301a
        0x20000512:    306c        l0      ADDS     r0,r0,#0x6c
        0x20000514:    f000fec0    ....    BL       i2c1_wr_data ; 0x20001298
        0x20000518:    4991        .I      LDR      r1,[pc,#580] ; [0x20000760] = 0x5f16
        0x2000051a:    487d        }H      LDR      r0,[pc,#500] ; [0x20000710] = 0x301a
        0x2000051c:    306c        l0      ADDS     r0,r0,#0x6c
        0x2000051e:    f000febb    ....    BL       i2c1_wr_data ; 0x20001298
        0x20000522:    4990        .I      LDR      r1,[pc,#576] ; [0x20000764] = 0x530d
        0x20000524:    487a        zH      LDR      r0,[pc,#488] ; [0x20000710] = 0x301a
        0x20000526:    306c        l0      ADDS     r0,r0,#0x6c
        0x20000528:    f000feb6    ....    BL       i2c1_wr_data ; 0x20001298
        0x2000052c:    21b3        .!      MOVS     r1,#0xb3
        0x2000052e:    0149        I.      LSLS     r1,r1,#5
        0x20000530:    4877        wH      LDR      r0,[pc,#476] ; [0x20000710] = 0x301a
        0x20000532:    306c        l0      ADDS     r0,r0,#0x6c
        0x20000534:    f000feb0    ....    BL       i2c1_wr_data ; 0x20001298
        0x20000538:    498b        .I      LDR      r1,[pc,#556] ; [0x20000768] = 0x3e4c
        0x2000053a:    4875        uH      LDR      r0,[pc,#468] ; [0x20000710] = 0x301a
        0x2000053c:    306c        l0      ADDS     r0,r0,#0x6c
        0x2000053e:    f000feab    ....    BL       i2c1_wr_data ; 0x20001298
        0x20000542:    4983        .I      LDR      r1,[pc,#524] ; [0x20000750] = 0x288e
        0x20000544:    3176        v1      ADDS     r1,r1,#0x76
        0x20000546:    4872        rH      LDR      r0,[pc,#456] ; [0x20000710] = 0x301a
        0x20000548:    306c        l0      ADDS     r0,r0,#0x6c
        0x2000054a:    f000fea5    ....    BL       i2c1_wr_data ; 0x20001298
        0x2000054e:    4978        xI      LDR      r1,[pc,#480] ; [0x20000730] = 0x2a14
        0x20000550:    3990        .9      SUBS     r1,r1,#0x90
        0x20000552:    486f        oH      LDR      r0,[pc,#444] ; [0x20000710] = 0x301a
        0x20000554:    306c        l0      ADDS     r0,r0,#0x6c
        0x20000556:    f000fe9f    ....    BL       i2c1_wr_data ; 0x20001298
        0x2000055a:    4974        tI      LDR      r1,[pc,#464] ; [0x2000072c] = 0x8e03
        0x2000055c:    486c        lH      LDR      r0,[pc,#432] ; [0x20000710] = 0x301a
        0x2000055e:    306c        l0      ADDS     r0,r0,#0x6c
        0x20000560:    f000fe9a    ....    BL       i2c1_wr_data ; 0x20001298
        0x20000564:    4972        rI      LDR      r1,[pc,#456] ; [0x20000730] = 0x2a14
        0x20000566:    31e8        .1      ADDS     r1,r1,#0xe8
        0x20000568:    4869        iH      LDR      r0,[pc,#420] ; [0x20000710] = 0x301a
        0x2000056a:    306c        l0      ADDS     r0,r0,#0x6c
        0x2000056c:    f000fe94    ....    BL       i2c1_wr_data ; 0x20001298
        0x20000570:    497e        ~I      LDR      r1,[pc,#504] ; [0x2000076c] = 0x5c1d
        0x20000572:    4867        gH      LDR      r0,[pc,#412] ; [0x20000710] = 0x301a
        0x20000574:    306c        l0      ADDS     r0,r0,#0x6c
        0x20000576:    f000fe8f    ....    BL       i2c1_wr_data ; 0x20001298
        0x2000057a:    497d        }I      LDR      r1,[pc,#500] ; [0x20000770] = 0x5754
        0x2000057c:    4864        dH      LDR      r0,[pc,#400] ; [0x20000710] = 0x301a
        0x2000057e:    306c        l0      ADDS     r0,r0,#0x6c
        0x20000580:    f000fe8a    ....    BL       i2c1_wr_data ; 0x20001298
        0x20000584:    4967        gI      LDR      r1,[pc,#412] ; [0x20000724] = 0x4a31
        0x20000586:    39d2        .9      SUBS     r1,r1,#0xd2
        0x20000588:    4861        aH      LDR      r0,[pc,#388] ; [0x20000710] = 0x301a
        0x2000058a:    306c        l0      ADDS     r0,r0,#0x6c
        0x2000058c:    f000fe84    ....    BL       i2c1_wr_data ; 0x20001298
        0x20000590:    4974        tI      LDR      r1,[pc,#464] ; [0x20000764] = 0x530d
        0x20000592:    3908        .9      SUBS     r1,r1,#8
        0x20000594:    485e        ^H      LDR      r0,[pc,#376] ; [0x20000710] = 0x301a
        0x20000596:    306c        l0      ADDS     r0,r0,#0x6c
        0x20000598:    f000fe7e    ..~.    BL       i2c1_wr_data ; 0x20001298
        0x2000059c:    4971        qI      LDR      r1,[pc,#452] ; [0x20000764] = 0x530d
        0x2000059e:    1f89        ..      SUBS     r1,r1,#6
        0x200005a0:    485b        [H      LDR      r0,[pc,#364] ; [0x20000710] = 0x301a
        0x200005a2:    306c        l0      ADDS     r0,r0,#0x6c
        0x200005a4:    f000fe78    ..x.    BL       i2c1_wr_data ; 0x20001298
        0x200005a8:    4972        rI      LDR      r1,[pc,#456] ; [0x20000774] = 0x4d2b
        0x200005aa:    4859        YH      LDR      r0,[pc,#356] ; [0x20000710] = 0x301a
        0x200005ac:    306c        l0      ADDS     r0,r0,#0x6c
        0x200005ae:    f000fe73    ..s.    BL       i2c1_wr_data ; 0x20001298
        0x200005b2:    4971        qI      LDR      r1,[pc,#452] ; [0x20000778] = 0xf810
        0x200005b4:    4856        VH      LDR      r0,[pc,#344] ; [0x20000710] = 0x301a
        0x200005b6:    306c        l0      ADDS     r0,r0,#0x6c
        0x200005b8:    f000fe6e    ..n.    BL       i2c1_wr_data ; 0x20001298
        0x200005bc:    496f        oI      LDR      r1,[pc,#444] ; [0x2000077c] = 0x164c
        0x200005be:    4854        TH      LDR      r0,[pc,#336] ; [0x20000710] = 0x301a
        0x200005c0:    306c        l0      ADDS     r0,r0,#0x6c
        0x200005c2:    f000fe69    ..i.    BL       i2c1_wr_data ; 0x20001298
        0x200005c6:    496e        nI      LDR      r1,[pc,#440] ; [0x20000780] = 0x955
        0x200005c8:    4851        QH      LDR      r0,[pc,#324] ; [0x20000710] = 0x301a
        0x200005ca:    306c        l0      ADDS     r0,r0,#0x6c
        0x200005cc:    f000fe64    ..d.    BL       i2c1_wr_data ; 0x20001298
        0x200005d0:    496c        lI      LDR      r1,[pc,#432] ; [0x20000784] = 0x562b
        0x200005d2:    484f        OH      LDR      r0,[pc,#316] ; [0x20000710] = 0x301a
        0x200005d4:    306c        l0      ADDS     r0,r0,#0x6c
        0x200005d6:    f000fe5f    .._.    BL       i2c1_wr_data ; 0x20001298
        0x200005da:    496b        kI      LDR      r1,[pc,#428] ; [0x20000788] = 0xb82b
        0x200005dc:    484c        LH      LDR      r0,[pc,#304] ; [0x20000710] = 0x301a
        0x200005de:    306c        l0      ADDS     r0,r0,#0x6c
        0x200005e0:    f000fe5a    ..Z.    BL       i2c1_wr_data ; 0x20001298
        0x200005e4:    4969        iI      LDR      r1,[pc,#420] ; [0x2000078c] = 0x984e
        0x200005e6:    484a        JH      LDR      r0,[pc,#296] ; [0x20000710] = 0x301a
        0x200005e8:    306c        l0      ADDS     r0,r0,#0x6c
        0x200005ea:    f000fe55    ..U.    BL       i2c1_wr_data ; 0x20001298
        0x200005ee:    494a        JI      LDR      r1,[pc,#296] ; [0x20000718] = 0x10d8
        0x200005f0:    3151        Q1      ADDS     r1,r1,#0x51
        0x200005f2:    4847        GH      LDR      r0,[pc,#284] ; [0x20000710] = 0x301a
        0x200005f4:    306c        l0      ADDS     r0,r0,#0x6c
        0x200005f6:    f000fe4f    ..O.    BL       i2c1_wr_data ; 0x20001298
        0x200005fa:    4965        eI      LDR      r1,[pc,#404] ; [0x20000790] = 0x9460
        0x200005fc:    4844        DH      LDR      r0,[pc,#272] ; [0x20000710] = 0x301a
        0x200005fe:    306c        l0      ADDS     r0,r0,#0x6c
        0x20000600:    f000fe4a    ..J.    BL       i2c1_wr_data ; 0x20001298
        0x20000604:    4959        YI      LDR      r1,[pc,#356] ; [0x2000076c] = 0x5c1d
        0x20000606:    1f09        ..      SUBS     r1,r1,#4
        0x20000608:    4841        AH      LDR      r0,[pc,#260] ; [0x20000710] = 0x301a
        0x2000060a:    306c        l0      ADDS     r0,r0,#0x6c
        0x2000060c:    f000fe44    ..D.    BL       i2c1_wr_data ; 0x20001298
        0x20000610:    4956        VI      LDR      r1,[pc,#344] ; [0x2000076c] = 0x5c1d
        0x20000612:    1e89        ..      SUBS     r1,r1,#2
        0x20000614:    483e        >H      LDR      r0,[pc,#248] ; [0x20000710] = 0x301a
        0x20000616:    306c        l0      ADDS     r0,r0,#0x6c
        0x20000618:    f000fe3e    ..>.    BL       i2c1_wr_data ; 0x20001298
        0x2000061c:    493f        ?I      LDR      r1,[pc,#252] ; [0x2000071c] = 0x4558
        0x2000061e:    3910        .9      SUBS     r1,r1,#0x10
        0x20000620:    483b        ;H      LDR      r0,[pc,#236] ; [0x20000710] = 0x301a
        0x20000622:    306c        l0      ADDS     r0,r0,#0x6c
        0x20000624:    f000fe38    ..8.    BL       i2c1_wr_data ; 0x20001298
        0x20000628:    493c        <I      LDR      r1,[pc,#240] ; [0x2000071c] = 0x4558
        0x2000062a:    3950        P9      SUBS     r1,r1,#0x50
        0x2000062c:    4838        8H      LDR      r0,[pc,#224] ; [0x20000710] = 0x301a
        0x2000062e:    306c        l0      ADDS     r0,r0,#0x6c
        0x20000630:    f000fe32    ..2.    BL       i2c1_wr_data ; 0x20001298
        0x20000634:    4939        9I      LDR      r1,[pc,#228] ; [0x2000071c] = 0x4558
        0x20000636:    3130        01      ADDS     r1,r1,#0x30
        0x20000638:    4835        5H      LDR      r0,[pc,#212] ; [0x20000710] = 0x301a
        0x2000063a:    306c        l0      ADDS     r0,r0,#0x6c
        0x2000063c:    f000fe2c    ..,.    BL       i2c1_wr_data ; 0x20001298
        0x20000640:    493b        ;I      LDR      r1,[pc,#236] ; [0x20000730] = 0x2a14
        0x20000642:    395e        ^9      SUBS     r1,r1,#0x5e
        0x20000644:    4832        2H      LDR      r0,[pc,#200] ; [0x20000710] = 0x301a
        0x20000646:    306c        l0      ADDS     r0,r0,#0x6c
        0x20000648:    f000fe26    ..&.    BL       i2c1_wr_data ; 0x20001298
        0x2000064c:    4937        7I      LDR      r1,[pc,#220] ; [0x2000072c] = 0x8e03
        0x2000064e:    1e89        ..      SUBS     r1,r1,#2
        0x20000650:    482f        /H      LDR      r0,[pc,#188] ; [0x20000710] = 0x301a
        0x20000652:    306c        l0      ADDS     r0,r0,#0x6c
        0x20000654:    f000fe20    .. .    BL       i2c1_wr_data ; 0x20001298
        0x20000658:    4935        5I      LDR      r1,[pc,#212] ; [0x20000730] = 0x2a14
        0x2000065a:    31e4        .1      ADDS     r1,r1,#0xe4
        0x2000065c:    482c        ,H      LDR      r0,[pc,#176] ; [0x20000710] = 0x301a
        0x2000065e:    306c        l0      ADDS     r0,r0,#0x6c
        0x20000660:    f000fe1a    ....    BL       i2c1_wr_data ; 0x20001298
        0x20000664:    4940        @I      LDR      r1,[pc,#256] ; [0x20000768] = 0x3e4c
        0x20000666:    394a        J9      SUBS     r1,r1,#0x4a
        0x20000668:    4829        )H      LDR      r0,[pc,#164] ; [0x20000710] = 0x301a
        0x2000066a:    306c        l0      ADDS     r0,r0,#0x6c
        0x2000066c:    f000fe14    ....    BL       i2c1_wr_data ; 0x20001298
        0x20000670:    492f        /I      LDR      r1,[pc,#188] ; [0x20000730] = 0x2a14
        0x20000672:    31e6        .1      ADDS     r1,r1,#0xe6
        0x20000674:    4826        &H      LDR      r0,[pc,#152] ; [0x20000710] = 0x301a
        0x20000676:    306c        l0      ADDS     r0,r0,#0x6c
        0x20000678:    f000fe0e    ....    BL       i2c1_wr_data ; 0x20001298
        0x2000067c:    493a        :I      LDR      r1,[pc,#232] ; [0x20000768] = 0x3e4c
        0x2000067e:    31bd        .1      ADDS     r1,r1,#0xbd
        0x20000680:    4823        #H      LDR      r0,[pc,#140] ; [0x20000710] = 0x301a
        0x20000682:    306c        l0      ADDS     r0,r0,#0x6c
        0x20000684:    f000fe08    ....    BL       i2c1_wr_data ; 0x20001298
        0x20000688:    4938        8I      LDR      r1,[pc,#224] ; [0x2000076c] = 0x5c1d
        0x2000068a:    1e89        ..      SUBS     r1,r1,#2
        0x2000068c:    4820         H      LDR      r0,[pc,#128] ; [0x20000710] = 0x301a
        0x2000068e:    306c        l0      ADDS     r0,r0,#0x6c
        0x20000690:    f000fe02    ....    BL       i2c1_wr_data ; 0x20001298
        0x20000694:    4926        &I      LDR      r1,[pc,#152] ; [0x20000730] = 0x2a14
        0x20000696:    3962        b9      SUBS     r1,r1,#0x62
        0x20000698:    481d        .H      LDR      r0,[pc,#116] ; [0x20000710] = 0x301a
        0x2000069a:    306c        l0      ADDS     r0,r0,#0x6c
        0x2000069c:    f000fdfc    ....    BL       i2c1_wr_data ; 0x20001298
        0x200006a0:    4931        1I      LDR      r1,[pc,#196] ; [0x20000768] = 0x3e4c
        0x200006a2:    31c0        .1      ADDS     r1,r1,#0xc0
        0x200006a4:    481a        .H      LDR      r0,[pc,#104] ; [0x20000710] = 0x301a
        0x200006a6:    306c        l0      ADDS     r0,r0,#0x6c
        0x200006a8:    f000fdf6    ....    BL       i2c1_wr_data ; 0x20001298
        0x200006ac:    492e        .I      LDR      r1,[pc,#184] ; [0x20000768] = 0x3e4c
        0x200006ae:    3949        I9      SUBS     r1,r1,#0x49
        0x200006b0:    4817        .H      LDR      r0,[pc,#92] ; [0x20000710] = 0x301a
        0x200006b2:    306c        l0      ADDS     r0,r0,#0x6c
        0x200006b4:    f000fdf0    ....    BL       i2c1_wr_data ; 0x20001298
        0x200006b8:    492b        +I      LDR      r1,[pc,#172] ; [0x20000768] = 0x3e4c
        0x200006ba:    3937        79      SUBS     r1,r1,#0x37
        0x200006bc:    4814        .H      LDR      r0,[pc,#80] ; [0x20000710] = 0x301a
        0x200006be:    306c        l0      ADDS     r0,r0,#0x6c
        0x200006c0:    f000fdea    ....    BL       i2c1_wr_data ; 0x20001298
        0x200006c4:    4929        )I      LDR      r1,[pc,#164] ; [0x2000076c] = 0x5c1d
        0x200006c6:    390a        .9      SUBS     r1,r1,#0xa
        0x200006c8:    4811        .H      LDR      r0,[pc,#68] ; [0x20000710] = 0x301a
        0x200006ca:    306c        l0      ADDS     r0,r0,#0x6c
        0x200006cc:    f000fde4    ....    BL       i2c1_wr_data ; 0x20001298
        0x200006d0:    4925        %I      LDR      r1,[pc,#148] ; [0x20000768] = 0x3e4c
        0x200006d2:    31c5        .1      ADDS     r1,r1,#0xc5
        0x200006d4:    480e        .H      LDR      r0,[pc,#56] ; [0x20000710] = 0x301a
        0x200006d6:    306c        l0      ADDS     r0,r0,#0x6c
        0x200006d8:    f000fdde    ....    BL       i2c1_wr_data ; 0x20001298
        0x200006dc:    4922        "I      LDR      r1,[pc,#136] ; [0x20000768] = 0x3e4c
        0x200006de:    393d        =9      SUBS     r1,r1,#0x3d
        0x200006e0:    480b        .H      LDR      r0,[pc,#44] ; [0x20000710] = 0x301a
        0x200006e2:    306c        l0      ADDS     r0,r0,#0x6c
        0x200006e4:    f000fdd8    ....    BL       i2c1_wr_data ; 0x20001298
        0x200006e8:    491d        .I      LDR      r1,[pc,#116] ; [0x20000760] = 0x5f16
        0x200006ea:    3115        .1      ADDS     r1,r1,#0x15
        0x200006ec:    4808        .H      LDR      r0,[pc,#32] ; [0x20000710] = 0x301a
        0x200006ee:    306c        l0      ADDS     r0,r0,#0x6c
        0x200006f0:    f000fdd2    ....    BL       i2c1_wr_data ; 0x20001298
        0x200006f4:    4927        'I      LDR      r1,[pc,#156] ; [0x20000794] = 0x902b
        0x200006f6:    e04f        O.      B        0x20000798 ; ar0237_init + 1184
    $d
        0x200006f8:    400093c0    ...@    DCD    1073779648
        0x200006fc:    40000040    @..@    DCD    1073741888
        0x20000700:    40006400    .d.@    DCD    1073767424
        0x20000704:    40006000    .`.@    DCD    1073766400
        0x20000708:    000f4240    @B..    DCD    1000000
        0x2000070c:    00061a80    ....    DCD    400000
        0x20000710:    0000301a    .0..    DCD    12314
        0x20000714:    000186a0    ....    DCD    100000
        0x20000718:    000010d8    ....    DCD    4312
        0x2000071c:    00004558    XE..    DCD    17752
        0x20000720:    000072a6    .r..    DCD    29350
        0x20000724:    00004a31    1J..    DCD    18993
        0x20000728:    00004342    BC..    DCD    17218
        0x2000072c:    00008e03    ....    DCD    36355
        0x20000730:    00002a14    .*..    DCD    10772
        0x20000734:    00007b3d    ={..    DCD    31549
        0x20000738:    0000ff3d    =...    DCD    65341
        0x2000073c:    0000ea2a    *...    DCD    59946
        0x20000740:    0000043d    =...    DCD    1085
        0x20000744:    00001535    5...    DCD    5429
        0x20000748:    00003d10    .=..    DCD    15632
        0x2000074c:    0000622a    *b..    DCD    25130
        0x20000750:    0000288e    .(..    DCD    10382
        0x20000754:    00007a3d    =z..    DCD    31293
        0x20000758:    00002c4b    K,..    DCD    11339
        0x2000075c:    0000a403    ....    DCD    41987
        0x20000760:    00005f16    ._..    DCD    24342
        0x20000764:    0000530d    .S..    DCD    21261
        0x20000768:    00003e4c    L>..    DCD    15948
        0x2000076c:    00005c1d    .\..    DCD    23581
        0x20000770:    00005754    TW..    DCD    22356
        0x20000774:    00004d2b    +M..    DCD    19755
        0x20000778:    0000f810    ....    DCD    63504
        0x2000077c:    0000164c    L...    DCD    5708
        0x20000780:    00000955    U...    DCD    2389
        0x20000784:    0000562b    +V..    DCD    22059
        0x20000788:    0000b82b    +...    DCD    47147
        0x2000078c:    0000984e    N...    DCD    38990
        0x20000790:    00009460    `...    DCD    37984
        0x20000794:    0000902b    +...    DCD    36907
    $t
        0x20000798:    48fe        .H      LDR      r0,[pc,#1016] ; [0x20000b94] = 0x301a
        0x2000079a:    306c        l0      ADDS     r0,r0,#0x6c
        0x2000079c:    f000fd7c    ..|.    BL       i2c1_wr_data ; 0x20001298
        0x200007a0:    49fd        .I      LDR      r1,[pc,#1012] ; [0x20000b98] = 0x803e
        0x200007a2:    48fc        .H      LDR      r0,[pc,#1008] ; [0x20000b94] = 0x301a
        0x200007a4:    306c        l0      ADDS     r0,r0,#0x6c
        0x200007a6:    f000fd77    ..w.    BL       i2c1_wr_data ; 0x20001298
        0x200007aa:    49fc        .I      LDR      r1,[pc,#1008] ; [0x20000b9c] = 0x62a
        0x200007ac:    48f9        .H      LDR      r0,[pc,#996] ; [0x20000b94] = 0x301a
        0x200007ae:    306c        l0      ADDS     r0,r0,#0x6c
        0x200007b0:    f000fd72    ..r.    BL       i2c1_wr_data ; 0x20001298
        0x200007b4:    49fa        .I      LDR      r1,[pc,#1000] ; [0x20000ba0] = 0xf23f
        0x200007b6:    48f7        .H      LDR      r0,[pc,#988] ; [0x20000b94] = 0x301a
        0x200007b8:    306c        l0      ADDS     r0,r0,#0x6c
        0x200007ba:    f000fd6d    ..m.    BL       i2c1_wr_data ; 0x20001298
        0x200007be:    49f9        .I      LDR      r1,[pc,#996] ; [0x20000ba4] = 0x103e
        0x200007c0:    48f4        .H      LDR      r0,[pc,#976] ; [0x20000b94] = 0x301a
        0x200007c2:    306c        l0      ADDS     r0,r0,#0x6c
        0x200007c4:    f000fd68    ..h.    BL       i2c1_wr_data ; 0x20001298
        0x200007c8:    21ff        .!      MOVS     r1,#0xff
        0x200007ca:    3161        a1      ADDS     r1,r1,#0x61
        0x200007cc:    48f1        .H      LDR      r0,[pc,#964] ; [0x20000b94] = 0x301a
        0x200007ce:    306c        l0      ADDS     r0,r0,#0x6c
        0x200007d0:    f000fd62    ..b.    BL       i2c1_wr_data ; 0x20001298
        0x200007d4:    49f4        .I      LDR      r1,[pc,#976] ; [0x20000ba8] = 0x29a2
        0x200007d6:    48ef        .H      LDR      r0,[pc,#956] ; [0x20000b94] = 0x301a
        0x200007d8:    306c        l0      ADDS     r0,r0,#0x6c
        0x200007da:    f000fd5d    ..].    BL       i2c1_wr_data ; 0x20001298
        0x200007de:    49f2        .I      LDR      r1,[pc,#968] ; [0x20000ba8] = 0x29a2
        0x200007e0:    1c49        I.      ADDS     r1,r1,#1
        0x200007e2:    48ec        .H      LDR      r0,[pc,#944] ; [0x20000b94] = 0x301a
        0x200007e4:    306c        l0      ADDS     r0,r0,#0x6c
        0x200007e6:    f000fd57    ..W.    BL       i2c1_wr_data ; 0x20001298
        0x200007ea:    49f0        .I      LDR      r1,[pc,#960] ; [0x20000bac] = 0x5f4d
        0x200007ec:    48e9        .H      LDR      r0,[pc,#932] ; [0x20000b94] = 0x301a
        0x200007ee:    306c        l0      ADDS     r0,r0,#0x6c
        0x200007f0:    f000fd52    ..R.    BL       i2c1_wr_data ; 0x20001298
        0x200007f4:    49ee        .I      LDR      r1,[pc,#952] ; [0x20000bb0] = 0x1c2a
        0x200007f6:    48e7        .H      LDR      r0,[pc,#924] ; [0x20000b94] = 0x301a
        0x200007f8:    306c        l0      ADDS     r0,r0,#0x6c
        0x200007fa:    f000fd4d    ..M.    BL       i2c1_wr_data ; 0x20001298
        0x200007fe:    49ed        .I      LDR      r1,[pc,#948] ; [0x20000bb4] = 0xfa29
        0x20000800:    48e4        .H      LDR      r0,[pc,#912] ; [0x20000b94] = 0x301a
        0x20000802:    306c        l0      ADDS     r0,r0,#0x6c
        0x20000804:    f000fd48    ..H.    BL       i2c1_wr_data ; 0x20001298
        0x20000808:    49eb        .I      LDR      r1,[pc,#940] ; [0x20000bb8] = 0x8345
        0x2000080a:    48e2        .H      LDR      r0,[pc,#904] ; [0x20000b94] = 0x301a
        0x2000080c:    306c        l0      ADDS     r0,r0,#0x6c
        0x2000080e:    f000fd43    ..C.    BL       i2c1_wr_data ; 0x20001298
        0x20000812:    49ea        .I      LDR      r1,[pc,#936] ; [0x20000bbc] = 0xa83e
        0x20000814:    48df        .H      LDR      r0,[pc,#892] ; [0x20000b94] = 0x301a
        0x20000816:    306c        l0      ADDS     r0,r0,#0x6c
        0x20000818:    f000fd3e    ..>.    BL       i2c1_wr_data ; 0x20001298
        0x2000081c:    49e8        .I      LDR      r1,[pc,#928] ; [0x20000bc0] = 0x72a
        0x2000081e:    48dd        .H      LDR      r0,[pc,#884] ; [0x20000b94] = 0x301a
        0x20000820:    306c        l0      ADDS     r0,r0,#0x6c
        0x20000822:    f000fd39    ..9.    BL       i2c1_wr_data ; 0x20001298
        0x20000826:    49e7        .I      LDR      r1,[pc,#924] ; [0x20000bc4] = 0xfb3e
        0x20000828:    48da        .H      LDR      r0,[pc,#872] ; [0x20000b94] = 0x301a
        0x2000082a:    306c        l0      ADDS     r0,r0,#0x6c
        0x2000082c:    f000fd34    ..4.    BL       i2c1_wr_data ; 0x20001298
        0x20000830:    49dd        .I      LDR      r1,[pc,#884] ; [0x20000ba8] = 0x29a2
        0x20000832:    395d        ]9      SUBS     r1,r1,#0x5d
        0x20000834:    48d7        .H      LDR      r0,[pc,#860] ; [0x20000b94] = 0x301a
        0x20000836:    306c        l0      ADDS     r0,r0,#0x6c
        0x20000838:    f000fd2e    ....    BL       i2c1_wr_data ; 0x20001298
        0x2000083c:    49e2        .I      LDR      r1,[pc,#904] ; [0x20000bc8] = 0x8824
        0x2000083e:    48d5        .H      LDR      r0,[pc,#852] ; [0x20000b94] = 0x301a
        0x20000840:    306c        l0      ADDS     r0,r0,#0x6c
        0x20000842:    f000fd29    ..).    BL       i2c1_wr_data ; 0x20001298
        0x20000846:    49e1        .I      LDR      r1,[pc,#900] ; [0x20000bcc] = 0x3e08
        0x20000848:    48d2        .H      LDR      r0,[pc,#840] ; [0x20000b94] = 0x301a
        0x2000084a:    306c        l0      ADDS     r0,r0,#0x6c
        0x2000084c:    f000fd24    ..$.    BL       i2c1_wr_data ; 0x20001298
        0x20000850:    49df        .I      LDR      r1,[pc,#892] ; [0x20000bd0] = 0x2afa
        0x20000852:    48d0        .H      LDR      r0,[pc,#832] ; [0x20000b94] = 0x301a
        0x20000854:    306c        l0      ADDS     r0,r0,#0x6c
        0x20000856:    f000fd1f    ....    BL       i2c1_wr_data ; 0x20001298
        0x2000085a:    49de        .I      LDR      r1,[pc,#888] ; [0x20000bd4] = 0x5d29
        0x2000085c:    48cd        .H      LDR      r0,[pc,#820] ; [0x20000b94] = 0x301a
        0x2000085e:    306c        l0      ADDS     r0,r0,#0x6c
        0x20000860:    f000fd1a    ....    BL       i2c1_wr_data ; 0x20001298
        0x20000864:    49dc        .I      LDR      r1,[pc,#880] ; [0x20000bd8] = 0x9288
        0x20000866:    48cb        .H      LDR      r0,[pc,#812] ; [0x20000b94] = 0x301a
        0x20000868:    306c        l0      ADDS     r0,r0,#0x6c
        0x2000086a:    f000fd15    ....    BL       i2c1_wr_data ; 0x20001298
        0x2000086e:    49cd        .I      LDR      r1,[pc,#820] ; [0x20000ba4] = 0x103e
        0x20000870:    3913        .9      SUBS     r1,r1,#0x13
        0x20000872:    48c8        .H      LDR      r0,[pc,#800] ; [0x20000b94] = 0x301a
        0x20000874:    306c        l0      ADDS     r0,r0,#0x6c
        0x20000876:    f000fd0f    ....    BL       i2c1_wr_data ; 0x20001298
        0x2000087a:    49d8        .I      LDR      r1,[pc,#864] ; [0x20000bdc] = 0x48b
        0x2000087c:    48c5        .H      LDR      r0,[pc,#788] ; [0x20000b94] = 0x301a
        0x2000087e:    306c        l0      ADDS     r0,r0,#0x6c
        0x20000880:    f000fd0a    ....    BL       i2c1_wr_data ; 0x20001298
        0x20000884:    49d6        .I      LDR      r1,[pc,#856] ; [0x20000be0] = 0x1686
        0x20000886:    48c3        .H      LDR      r0,[pc,#780] ; [0x20000b94] = 0x301a
        0x20000888:    306c        l0      ADDS     r0,r0,#0x6c
        0x2000088a:    f000fd05    ....    BL       i2c1_wr_data ; 0x20001298
        0x2000088e:    49d5        .I      LDR      r1,[pc,#852] ; [0x20000be4] = 0x8d48
        0x20000890:    48c0        .H      LDR      r0,[pc,#768] ; [0x20000b94] = 0x301a
        0x20000892:    306c        l0      ADDS     r0,r0,#0x6c
        0x20000894:    f000fd00    ....    BL       i2c1_wr_data ; 0x20001298
        0x20000898:    49d3        .I      LDR      r1,[pc,#844] ; [0x20000be8] = 0x4d4e
        0x2000089a:    48be        .H      LDR      r0,[pc,#760] ; [0x20000b94] = 0x301a
        0x2000089c:    306c        l0      ADDS     r0,r0,#0x6c
        0x2000089e:    f000fcfb    ....    BL       i2c1_wr_data ; 0x20001298
        0x200008a2:    2157        W!      MOVS     r1,#0x57
        0x200008a4:    01c9        ..      LSLS     r1,r1,#7
        0x200008a6:    48bb        .H      LDR      r0,[pc,#748] ; [0x20000b94] = 0x301a
        0x200008a8:    306c        l0      ADDS     r0,r0,#0x6c
        0x200008aa:    f000fcf5    ....    BL       i2c1_wr_data ; 0x20001298
        0x200008ae:    49cf        .I      LDR      r1,[pc,#828] ; [0x20000bec] = 0x4c0b
        0x200008b0:    48b8        .H      LDR      r0,[pc,#736] ; [0x20000b94] = 0x301a
        0x200008b2:    306c        l0      ADDS     r0,r0,#0x6c
        0x200008b4:    f000fcf0    ....    BL       i2c1_wr_data ; 0x20001298
        0x200008b8:    49cd        .I      LDR      r1,[pc,#820] ; [0x20000bf0] = 0x3f36
        0x200008ba:    48b6        .H      LDR      r0,[pc,#728] ; [0x20000b94] = 0x301a
        0x200008bc:    306c        l0      ADDS     r0,r0,#0x6c
        0x200008be:    f000fceb    ....    BL       i2c1_wr_data ; 0x20001298
        0x200008c2:    49c3        .I      LDR      r1,[pc,#780] ; [0x20000bd0] = 0x2afa
        0x200008c4:    3908        .9      SUBS     r1,r1,#8
        0x200008c6:    48b3        .H      LDR      r0,[pc,#716] ; [0x20000b94] = 0x301a
        0x200008c8:    306c        l0      ADDS     r0,r0,#0x6c
        0x200008ca:    f000fce5    ....    BL       i2c1_wr_data ; 0x20001298
        0x200008ce:    49c8        .I      LDR      r1,[pc,#800] ; [0x20000bf0] = 0x3f36
        0x200008d0:    3926        &9      SUBS     r1,r1,#0x26
        0x200008d2:    48b0        .H      LDR      r0,[pc,#704] ; [0x20000b94] = 0x301a
        0x200008d4:    306c        l0      ADDS     r0,r0,#0x6c
        0x200008d6:    f000fcdf    ....    BL       i2c1_wr_data ; 0x20001298
        0x200008da:    49bc        .I      LDR      r1,[pc,#752] ; [0x20000bcc] = 0x3e08
        0x200008dc:    1fc9        ..      SUBS     r1,r1,#7
        0x200008de:    48ad        .H      LDR      r0,[pc,#692] ; [0x20000b94] = 0x301a
        0x200008e0:    306c        l0      ADDS     r0,r0,#0x6c
        0x200008e2:    f000fcd9    ....    BL       i2c1_wr_data ; 0x20001298
        0x200008e6:    49b1        .I      LDR      r1,[pc,#708] ; [0x20000bac] = 0x5f4d
        0x200008e8:    31dc        .1      ADDS     r1,r1,#0xdc
        0x200008ea:    48aa        .H      LDR      r0,[pc,#680] ; [0x20000b94] = 0x301a
        0x200008ec:    306c        l0      ADDS     r0,r0,#0x6c
        0x200008ee:    f000fcd3    ....    BL       i2c1_wr_data ; 0x20001298
        0x200008f2:    49c0        .I      LDR      r1,[pc,#768] ; [0x20000bf4] = 0x8229
        0x200008f4:    48a7        .H      LDR      r0,[pc,#668] ; [0x20000b94] = 0x301a
        0x200008f6:    306c        l0      ADDS     r0,r0,#0x6c
        0x200008f8:    f000fcce    ....    BL       i2c1_wr_data ; 0x20001298
        0x200008fc:    49ae        .I      LDR      r1,[pc,#696] ; [0x20000bb8] = 0x8345
        0x200008fe:    391c        .9      SUBS     r1,r1,#0x1c
        0x20000900:    48a4        .H      LDR      r0,[pc,#656] ; [0x20000b94] = 0x301a
        0x20000902:    306c        l0      ADDS     r0,r0,#0x6c
        0x20000904:    f000fcc8    ....    BL       i2c1_wr_data ; 0x20001298
        0x20000908:    49bb        .I      LDR      r1,[pc,#748] ; [0x20000bf8] = 0x435c
        0x2000090a:    48a2        .H      LDR      r0,[pc,#648] ; [0x20000b94] = 0x301a
        0x2000090c:    306c        l0      ADDS     r0,r0,#0x6c
        0x2000090e:    f000fcc3    ....    BL       i2c1_wr_data ; 0x20001298
        0x20000912:    49ba        .I      LDR      r1,[pc,#744] ; [0x20000bfc] = 0x155f
        0x20000914:    489f        .H      LDR      r0,[pc,#636] ; [0x20000b94] = 0x301a
        0x20000916:    306c        l0      ADDS     r0,r0,#0x6c
        0x20000918:    f000fcbe    ....    BL       i2c1_wr_data ; 0x20001298
        0x2000091c:    49b2        .I      LDR      r1,[pc,#712] ; [0x20000be8] = 0x4d4e
        0x2000091e:    3932        29      SUBS     r1,r1,#0x32
        0x20000920:    489c        .H      LDR      r0,[pc,#624] ; [0x20000b94] = 0x301a
        0x20000922:    306c        l0      ADDS     r0,r0,#0x6c
        0x20000924:    f000fcb8    ....    BL       i2c1_wr_data ; 0x20001298
        0x20000928:    49a9        .I      LDR      r1,[pc,#676] ; [0x20000bd0] = 0x2afa
        0x2000092a:    489a        .H      LDR      r0,[pc,#616] ; [0x20000b94] = 0x301a
        0x2000092c:    306c        l0      ADDS     r0,r0,#0x6c
        0x2000092e:    f000fcb3    ....    BL       i2c1_wr_data ; 0x20001298
        0x20000932:    49b3        .I      LDR      r1,[pc,#716] ; [0x20000c00] = 0x4558
        0x20000934:    4897        .H      LDR      r0,[pc,#604] ; [0x20000b94] = 0x301a
        0x20000936:    306c        l0      ADDS     r0,r0,#0x6c
        0x20000938:    f000fcae    ....    BL       i2c1_wr_data ; 0x20001298
        0x2000093c:    2147        G!      MOVS     r1,#0x47
        0x2000093e:    0249        I.      LSLS     r1,r1,#9
        0x20000940:    4894        .H      LDR      r0,[pc,#592] ; [0x20000b94] = 0x301a
        0x20000942:    306c        l0      ADDS     r0,r0,#0x6c
        0x20000944:    f000fca8    ....    BL       i2c1_wr_data ; 0x20001298
        0x20000948:    49a1        .I      LDR      r1,[pc,#644] ; [0x20000bd0] = 0x2afa
        0x2000094a:    3962        b9      SUBS     r1,r1,#0x62
        0x2000094c:    4891        .H      LDR      r0,[pc,#580] ; [0x20000b94] = 0x301a
        0x2000094e:    306c        l0      ADDS     r0,r0,#0x6c
        0x20000950:    f000fca2    ....    BL       i2c1_wr_data ; 0x20001298
        0x20000954:    49a6        .I      LDR      r1,[pc,#664] ; [0x20000bf0] = 0x3f36
        0x20000956:    392c        ,9      SUBS     r1,r1,#0x2c
        0x20000958:    488e        .H      LDR      r0,[pc,#568] ; [0x20000b94] = 0x301a
        0x2000095a:    306c        l0      ADDS     r0,r0,#0x6c
        0x2000095c:    f000fc9c    ....    BL       i2c1_wr_data ; 0x20001298
        0x20000960:    49a8        .I      LDR      r1,[pc,#672] ; [0x20000c04] = 0x4a0a
        0x20000962:    488c        .H      LDR      r0,[pc,#560] ; [0x20000b94] = 0x301a
        0x20000964:    306c        l0      ADDS     r0,r0,#0x6c
        0x20000966:    f000fc97    ....    BL       i2c1_wr_data ; 0x20001298
        0x2000096a:    49a3        .I      LDR      r1,[pc,#652] ; [0x20000bf8] = 0x435c
        0x2000096c:    3946        F9      SUBS     r1,r1,#0x46
        0x2000096e:    4889        .H      LDR      r0,[pc,#548] ; [0x20000b94] = 0x301a
        0x20000970:    306c        l0      ADDS     r0,r0,#0x6c
        0x20000972:    f000fc91    ....    BL       i2c1_wr_data ; 0x20001298
        0x20000976:    49a4        .I      LDR      r1,[pc,#656] ; [0x20000c08] = 0xb43
        0x20000978:    4886        .H      LDR      r0,[pc,#536] ; [0x20000b94] = 0x301a
        0x2000097a:    306c        l0      ADDS     r0,r0,#0x6c
        0x2000097c:    f000fc8c    ....    BL       i2c1_wr_data ; 0x20001298
        0x20000980:    4997        .I      LDR      r1,[pc,#604] ; [0x20000be0] = 0x1686
        0x20000982:    3108        .1      ADDS     r1,r1,#8
        0x20000984:    4883        .H      LDR      r0,[pc,#524] ; [0x20000b94] = 0x301a
        0x20000986:    306c        l0      ADDS     r0,r0,#0x6c
        0x20000988:    f000fc86    ....    BL       i2c1_wr_data ; 0x20001298
        0x2000098c:    499f        .I      LDR      r1,[pc,#636] ; [0x20000c0c] = 0x32a
        0x2000098e:    4881        .H      LDR      r0,[pc,#516] ; [0x20000b94] = 0x301a
        0x20000990:    306c        l0      ADDS     r0,r0,#0x6c
        0x20000992:    f000fc81    ....    BL       i2c1_wr_data ; 0x20001298
        0x20000996:    499e        .I      LDR      r1,[pc,#632] ; [0x20000c10] = 0x9c45
        0x20000998:    487e        ~H      LDR      r0,[pc,#504] ; [0x20000b94] = 0x301a
        0x2000099a:    306c        l0      ADDS     r0,r0,#0x6c
        0x2000099c:    f000fc7c    ..|.    BL       i2c1_wr_data ; 0x20001298
        0x200009a0:    499c        .I      LDR      r1,[pc,#624] ; [0x20000c14] = 0x783f
        0x200009a2:    487c        |H      LDR      r0,[pc,#496] ; [0x20000b94] = 0x301a
        0x200009a4:    306c        l0      ADDS     r0,r0,#0x6c
        0x200009a6:    f000fc77    ..w.    BL       i2c1_wr_data ; 0x20001298
        0x200009aa:    4985        .I      LDR      r1,[pc,#532] ; [0x20000bc0] = 0x72a
        0x200009ac:    4879        yH      LDR      r0,[pc,#484] ; [0x20000b94] = 0x301a
        0x200009ae:    306c        l0      ADDS     r0,r0,#0x6c
        0x200009b0:    f000fc72    ..r.    BL       i2c1_wr_data ; 0x20001298
        0x200009b4:    4996        .I      LDR      r1,[pc,#600] ; [0x20000c10] = 0x9c45
        0x200009b6:    31f9        .1      ADDS     r1,r1,#0xf9
        0x200009b8:    4876        vH      LDR      r0,[pc,#472] ; [0x20000b94] = 0x301a
        0x200009ba:    306c        l0      ADDS     r0,r0,#0x6c
        0x200009bc:    f000fc6c    ..l.    BL       i2c1_wr_data ; 0x20001298
        0x200009c0:    4974        tI      LDR      r1,[pc,#464] ; [0x20000b94] = 0x301a
        0x200009c2:    3143        C1      ADDS     r1,r1,#0x43
        0x200009c4:    4873        sH      LDR      r0,[pc,#460] ; [0x20000b94] = 0x301a
        0x200009c6:    306c        l0      ADDS     r0,r0,#0x6c
        0x200009c8:    f000fc66    ..f.    BL       i2c1_wr_data ; 0x20001298
        0x200009cc:    4976        vI      LDR      r1,[pc,#472] ; [0x20000ba8] = 0x29a2
        0x200009ce:    395e        ^9      SUBS     r1,r1,#0x5e
        0x200009d0:    4870        pH      LDR      r0,[pc,#448] ; [0x20000b94] = 0x301a
        0x200009d2:    306c        l0      ADDS     r0,r0,#0x6c
        0x200009d4:    f000fc60    ..`.    BL       i2c1_wr_data ; 0x20001298
        0x200009d8:    497b        {I      LDR      r1,[pc,#492] ; [0x20000bc8] = 0x8824
        0x200009da:    3914        .9      SUBS     r1,r1,#0x14
        0x200009dc:    486d        mH      LDR      r0,[pc,#436] ; [0x20000b94] = 0x301a
        0x200009de:    306c        l0      ADDS     r0,r0,#0x6c
        0x200009e0:    f000fc5a    ..Z.    BL       i2c1_wr_data ; 0x20001298
        0x200009e4:    497a        zI      LDR      r1,[pc,#488] ; [0x20000bd0] = 0x2afa
        0x200009e6:    310a        .1      ADDS     r1,r1,#0xa
        0x200009e8:    486a        jH      LDR      r0,[pc,#424] ; [0x20000b94] = 0x301a
        0x200009ea:    306c        l0      ADDS     r0,r0,#0x6c
        0x200009ec:    f000fc54    ..T.    BL       i2c1_wr_data ; 0x20001298
        0x200009f0:    4989        .I      LDR      r1,[pc,#548] ; [0x20000c18] = 0x530d
        0x200009f2:    4868        hH      LDR      r0,[pc,#416] ; [0x20000b94] = 0x301a
        0x200009f4:    306c        l0      ADDS     r0,r0,#0x6c
        0x200009f6:    f000fc4f    ..O.    BL       i2c1_wr_data ; 0x20001298
        0x200009fa:    4981        .I      LDR      r1,[pc,#516] ; [0x20000c00] = 0x4558
        0x200009fc:    4865        eH      LDR      r0,[pc,#404] ; [0x20000b94] = 0x301a
        0x200009fe:    306c        l0      ADDS     r0,r0,#0x6c
        0x20000a00:    f000fc4a    ..J.    BL       i2c1_wr_data ; 0x20001298
        0x20000a04:    4971        qI      LDR      r1,[pc,#452] ; [0x20000bcc] = 0x3e08
        0x20000a06:    4863        cH      LDR      r0,[pc,#396] ; [0x20000b94] = 0x301a
        0x20000a08:    306c        l0      ADDS     r0,r0,#0x6c
        0x20000a0a:    f000fc45    ..E.    BL       i2c1_wr_data ; 0x20001298
        0x20000a0e:    4975        uI      LDR      r1,[pc,#468] ; [0x20000be4] = 0x8d48
        0x20000a10:    31b9        .1      ADDS     r1,r1,#0xb9
        0x20000a12:    4860        `H      LDR      r0,[pc,#384] ; [0x20000b94] = 0x301a
        0x20000a14:    306c        l0      ADDS     r0,r0,#0x6c
        0x20000a16:    f000fc3f    ..?.    BL       i2c1_wr_data ; 0x20001298
        0x20000a1a:    496d        mI      LDR      r1,[pc,#436] ; [0x20000bd0] = 0x2afa
        0x20000a1c:    3962        b9      SUBS     r1,r1,#0x62
        0x20000a1e:    485d        ]H      LDR      r0,[pc,#372] ; [0x20000b94] = 0x301a
        0x20000a20:    306c        l0      ADDS     r0,r0,#0x6c
        0x20000a22:    f000fc39    ..9.    BL       i2c1_wr_data ; 0x20001298
        0x20000a26:    2147        G!      MOVS     r1,#0x47
        0x20000a28:    0249        I.      LSLS     r1,r1,#9
        0x20000a2a:    485a        ZH      LDR      r0,[pc,#360] ; [0x20000b94] = 0x301a
        0x20000a2c:    306c        l0      ADDS     r0,r0,#0x6c
        0x20000a2e:    f000fc33    ..3.    BL       i2c1_wr_data ; 0x20001298
        0x20000a32:    497a        zI      LDR      r1,[pc,#488] ; [0x20000c1c] = 0x76a7
        0x20000a34:    4857        WH      LDR      r0,[pc,#348] ; [0x20000b94] = 0x301a
        0x20000a36:    306c        l0      ADDS     r0,r0,#0x6c
        0x20000a38:    f000fc2e    ....    BL       i2c1_wr_data ; 0x20001298
        0x20000a3c:    4975        uI      LDR      r1,[pc,#468] ; [0x20000c14] = 0x783f
        0x20000a3e:    3998        .9      SUBS     r1,r1,#0x98
        0x20000a40:    4854        TH      LDR      r0,[pc,#336] ; [0x20000b94] = 0x301a
        0x20000a42:    306c        l0      ADDS     r0,r0,#0x6c
        0x20000a44:    f000fc28    ..(.    BL       i2c1_wr_data ; 0x20001298
        0x20000a48:    496d        mI      LDR      r1,[pc,#436] ; [0x20000c00] = 0x4558
        0x20000a4a:    31ec        .1      ADDS     r1,r1,#0xec
        0x20000a4c:    4851        QH      LDR      r0,[pc,#324] ; [0x20000b94] = 0x301a
        0x20000a4e:    306c        l0      ADDS     r0,r0,#0x6c
        0x20000a50:    f000fc22    ..".    BL       i2c1_wr_data ; 0x20001298
        0x20000a54:    4962        bI      LDR      r1,[pc,#392] ; [0x20000be0] = 0x1686
        0x20000a56:    3970        p9      SUBS     r1,r1,#0x70
        0x20000a58:    484e        NH      LDR      r0,[pc,#312] ; [0x20000b94] = 0x301a
        0x20000a5a:    306c        l0      ADDS     r0,r0,#0x6c
        0x20000a5c:    f000fc1c    ....    BL       i2c1_wr_data ; 0x20001298
        0x20000a60:    496f        oI      LDR      r1,[pc,#444] ; [0x20000c20] = 0xa57a
        0x20000a62:    484c        LH      LDR      r0,[pc,#304] ; [0x20000b94] = 0x301a
        0x20000a64:    306c        l0      ADDS     r0,r0,#0x6c
        0x20000a66:    f000fc17    ....    BL       i2c1_wr_data ; 0x20001298
        0x20000a6a:    496e        nI      LDR      r1,[pc,#440] ; [0x20000c24] = 0x1244
        0x20000a6c:    4849        IH      LDR      r0,[pc,#292] ; [0x20000b94] = 0x301a
        0x20000a6e:    306c        l0      ADDS     r0,r0,#0x6c
        0x20000a70:    f000fc12    ....    BL       i2c1_wr_data ; 0x20001298
        0x20000a74:    495d        ]I      LDR      r1,[pc,#372] ; [0x20000bec] = 0x4c0b
        0x20000a76:    39f3        .9      SUBS     r1,r1,#0xf3
        0x20000a78:    4846        FH      LDR      r0,[pc,#280] ; [0x20000b94] = 0x301a
        0x20000a7a:    306c        l0      ADDS     r0,r0,#0x6c
        0x20000a7c:    f000fc0c    ....    BL       i2c1_wr_data ; 0x20001298
        0x20000a80:    4960        `I      LDR      r1,[pc,#384] ; [0x20000c04] = 0x4a0a
        0x20000a82:    1f89        ..      SUBS     r1,r1,#6
        0x20000a84:    4843        CH      LDR      r0,[pc,#268] ; [0x20000b94] = 0x301a
        0x20000a86:    306c        l0      ADDS     r0,r0,#0x6c
        0x20000a88:    f000fc06    ....    BL       i2c1_wr_data ; 0x20001298
        0x20000a8c:    495a        ZI      LDR      r1,[pc,#360] ; [0x20000bf8] = 0x435c
        0x20000a8e:    3946        F9      SUBS     r1,r1,#0x46
        0x20000a90:    4840        @H      LDR      r0,[pc,#256] ; [0x20000b94] = 0x301a
        0x20000a92:    306c        l0      ADDS     r0,r0,#0x6c
        0x20000a94:    f000fc00    ....    BL       i2c1_wr_data ; 0x20001298
        0x20000a98:    4940        @I      LDR      r1,[pc,#256] ; [0x20000b9c] = 0x62a
        0x20000a9a:    3119        .1      ADDS     r1,r1,#0x19
        0x20000a9c:    483d        =H      LDR      r0,[pc,#244] ; [0x20000b94] = 0x301a
        0x20000a9e:    306c        l0      ADDS     r0,r0,#0x6c
        0x20000aa0:    f000fbfa    ....    BL       i2c1_wr_data ; 0x20001298
        0x20000aa4:    494e        NI      LDR      r1,[pc,#312] ; [0x20000be0] = 0x1686
        0x20000aa6:    3981        .9      SUBS     r1,r1,#0x81
        0x20000aa8:    483a        :H      LDR      r0,[pc,#232] ; [0x20000b94] = 0x301a
        0x20000aaa:    306c        l0      ADDS     r0,r0,#0x6c
        0x20000aac:    f000fbf4    ....    BL       i2c1_wr_data ; 0x20001298
        0x20000ab0:    4951        QI      LDR      r1,[pc,#324] ; [0x20000bf8] = 0x435c
        0x20000ab2:    3946        F9      SUBS     r1,r1,#0x46
        0x20000ab4:    4837        7H      LDR      r0,[pc,#220] ; [0x20000b94] = 0x301a
        0x20000ab6:    306c        l0      ADDS     r0,r0,#0x6c
        0x20000ab8:    f000fbee    ....    BL       i2c1_wr_data ; 0x20001298
        0x20000abc:    4940        @I      LDR      r1,[pc,#256] ; [0x20000bc0] = 0x72a
        0x20000abe:    3119        .1      ADDS     r1,r1,#0x19
        0x20000ac0:    4834        4H      LDR      r0,[pc,#208] ; [0x20000b94] = 0x301a
        0x20000ac2:    306c        l0      ADDS     r0,r0,#0x6c
        0x20000ac4:    f000fbe8    ....    BL       i2c1_wr_data ; 0x20001298
        0x20000ac8:    4945        EI      LDR      r1,[pc,#276] ; [0x20000be0] = 0x1686
        0x20000aca:    392e        .9      SUBS     r1,r1,#0x2e
        0x20000acc:    4831        1H      LDR      r0,[pc,#196] ; [0x20000b94] = 0x301a
        0x20000ace:    306c        l0      ADDS     r0,r0,#0x6c
        0x20000ad0:    f000fbe2    ....    BL       i2c1_wr_data ; 0x20001298
        0x20000ad4:    4948        HI      LDR      r1,[pc,#288] ; [0x20000bf8] = 0x435c
        0x20000ad6:    3946        F9      SUBS     r1,r1,#0x46
        0x20000ad8:    482e        .H      LDR      r0,[pc,#184] ; [0x20000b94] = 0x301a
        0x20000ada:    306c        l0      ADDS     r0,r0,#0x6c
        0x20000adc:    f000fbdc    ....    BL       i2c1_wr_data ; 0x20001298
        0x20000ae0:    4951        QI      LDR      r1,[pc,#324] ; [0x20000c28] = 0x5a43
        0x20000ae2:    482c        ,H      LDR      r0,[pc,#176] ; [0x20000b94] = 0x301a
        0x20000ae4:    306c        l0      ADDS     r0,r0,#0x6c
        0x20000ae6:    f000fbd7    ....    BL       i2c1_wr_data ; 0x20001298
        0x20000aea:    493d        =I      LDR      r1,[pc,#244] ; [0x20000be0] = 0x1686
        0x20000aec:    3941        A9      SUBS     r1,r1,#0x41
        0x20000aee:    4829        )H      LDR      r0,[pc,#164] ; [0x20000b94] = 0x301a
        0x20000af0:    306c        l0      ADDS     r0,r0,#0x6c
        0x20000af2:    f000fbd1    ....    BL       i2c1_wr_data ; 0x20001298
        0x20000af6:    494d        MI      LDR      r1,[pc,#308] ; [0x20000c2c] = 0x588e
        0x20000af8:    4826        &H      LDR      r0,[pc,#152] ; [0x20000b94] = 0x301a
        0x20000afa:    306c        l0      ADDS     r0,r0,#0x6c
        0x20000afc:    f000fbcc    ....    BL       i2c1_wr_data ; 0x20001298
        0x20000b00:    4942        BI      LDR      r1,[pc,#264] ; [0x20000c0c] = 0x32a
        0x20000b02:    4824        $H      LDR      r0,[pc,#144] ; [0x20000b94] = 0x301a
        0x20000b04:    306c        l0      ADDS     r0,r0,#0x6c
        0x20000b06:    f000fbc7    ....    BL       i2c1_wr_data ; 0x20001298
        0x20000b0a:    4941        AI      LDR      r1,[pc,#260] ; [0x20000c10] = 0x9c45
        0x20000b0c:    4821        !H      LDR      r0,[pc,#132] ; [0x20000b94] = 0x301a
        0x20000b0e:    306c        l0      ADDS     r0,r0,#0x6c
        0x20000b10:    f000fbc2    ....    BL       i2c1_wr_data ; 0x20001298
        0x20000b14:    493f        ?I      LDR      r1,[pc,#252] ; [0x20000c14] = 0x783f
        0x20000b16:    313c        <1      ADDS     r1,r1,#0x3c
        0x20000b18:    481e        .H      LDR      r0,[pc,#120] ; [0x20000b94] = 0x301a
        0x20000b1a:    306c        l0      ADDS     r0,r0,#0x6c
        0x20000b1c:    f000fbbc    ....    BL       i2c1_wr_data ; 0x20001298
        0x20000b20:    4933        3I      LDR      r1,[pc,#204] ; [0x20000bf0] = 0x3f36
        0x20000b22:    392f        /9      SUBS     r1,r1,#0x2f
        0x20000b24:    481b        .H      LDR      r0,[pc,#108] ; [0x20000b94] = 0x301a
        0x20000b26:    306c        l0      ADDS     r0,r0,#0x6c
        0x20000b28:    f000fbb6    ....    BL       i2c1_wr_data ; 0x20001298
        0x20000b2c:    4928        (I      LDR      r1,[pc,#160] ; [0x20000bd0] = 0x2afa
        0x20000b2e:    395d        ]9      SUBS     r1,r1,#0x5d
        0x20000b30:    4818        .H      LDR      r0,[pc,#96] ; [0x20000b94] = 0x301a
        0x20000b32:    306c        l0      ADDS     r0,r0,#0x6c
        0x20000b34:    f000fbb0    ....    BL       i2c1_wr_data ; 0x20001298
        0x20000b38:    493d        =I      LDR      r1,[pc,#244] ; [0x20000c30] = 0x630d
        0x20000b3a:    4816        .H      LDR      r0,[pc,#88] ; [0x20000b94] = 0x301a
        0x20000b3c:    306c        l0      ADDS     r0,r0,#0x6c
        0x20000b3e:    f000fbab    ....    BL       i2c1_wr_data ; 0x20001298
        0x20000b42:    493c        <I      LDR      r1,[pc,#240] ; [0x20000c34] = 0x8b16
        0x20000b44:    4813        .H      LDR      r0,[pc,#76] ; [0x20000b94] = 0x301a
        0x20000b46:    306c        l0      ADDS     r0,r0,#0x6c
        0x20000b48:    f000fba6    ....    BL       i2c1_wr_data ; 0x20001298
        0x20000b4c:    493a        :I      LDR      r1,[pc,#232] ; [0x20000c38] = 0x863e
        0x20000b4e:    4811        .H      LDR      r0,[pc,#68] ; [0x20000b94] = 0x301a
        0x20000b50:    306c        l0      ADDS     r0,r0,#0x6c
        0x20000b52:    f000fba1    ....    BL       i2c1_wr_data ; 0x20001298
        0x20000b56:    4939        9I      LDR      r1,[pc,#228] ; [0x20000c3c] = 0x2345
        0x20000b58:    480e        .H      LDR      r0,[pc,#56] ; [0x20000b94] = 0x301a
        0x20000b5a:    306c        l0      ADDS     r0,r0,#0x6c
        0x20000b5c:    f000fb9c    ....    BL       i2c1_wr_data ; 0x20001298
        0x20000b60:    4932        2I      LDR      r1,[pc,#200] ; [0x20000c2c] = 0x588e
        0x20000b62:    3969        i9      SUBS     r1,r1,#0x69
        0x20000b64:    480b        .H      LDR      r0,[pc,#44] ; [0x20000b94] = 0x301a
        0x20000b66:    306c        l0      ADDS     r0,r0,#0x6c
        0x20000b68:    f000fb96    ....    BL       i2c1_wr_data ; 0x20001298
        0x20000b6c:    4917        .I      LDR      r1,[pc,#92] ; [0x20000bcc] = 0x3e08
        0x20000b6e:    3108        .1      ADDS     r1,r1,#8
        0x20000b70:    4808        .H      LDR      r0,[pc,#32] ; [0x20000b94] = 0x301a
        0x20000b72:    306c        l0      ADDS     r0,r0,#0x6c
        0x20000b74:    f000fb90    ....    BL       i2c1_wr_data ; 0x20001298
        0x20000b78:    491a        .I      LDR      r1,[pc,#104] ; [0x20000be4] = 0x8d48
        0x20000b7a:    31b9        .1      ADDS     r1,r1,#0xb9
        0x20000b7c:    4805        .H      LDR      r0,[pc,#20] ; [0x20000b94] = 0x301a
        0x20000b7e:    306c        l0      ADDS     r0,r0,#0x6c
        0x20000b80:    f000fb8a    ....    BL       i2c1_wr_data ; 0x20001298
        0x20000b84:    4912        .I      LDR      r1,[pc,#72] ; [0x20000bd0] = 0x2afa
        0x20000b86:    3962        b9      SUBS     r1,r1,#0x62
        0x20000b88:    4802        .H      LDR      r0,[pc,#8] ; [0x20000b94] = 0x301a
        0x20000b8a:    306c        l0      ADDS     r0,r0,#0x6c
        0x20000b8c:    f000fb84    ....    BL       i2c1_wr_data ; 0x20001298
        0x20000b90:    2147        G!      MOVS     r1,#0x47
        0x20000b92:    e055        U.      B        0x20000c40 ; ar0237_init + 2376
    $d
        0x20000b94:    0000301a    .0..    DCD    12314
        0x20000b98:    0000803e    >...    DCD    32830
        0x20000b9c:    0000062a    *...    DCD    1578
        0x20000ba0:    0000f23f    ?...    DCD    62015
        0x20000ba4:    0000103e    >...    DCD    4158
        0x20000ba8:    000029a2    .)..    DCD    10658
        0x20000bac:    00005f4d    M_..    DCD    24397
        0x20000bb0:    00001c2a    *...    DCD    7210
        0x20000bb4:    0000fa29    )...    DCD    64041
        0x20000bb8:    00008345    E...    DCD    33605
        0x20000bbc:    0000a83e    >...    DCD    43070
        0x20000bc0:    0000072a    *...    DCD    1834
        0x20000bc4:    0000fb3e    >...    DCD    64318
        0x20000bc8:    00008824    $...    DCD    34852
        0x20000bcc:    00003e08    .>..    DCD    15880
        0x20000bd0:    00002afa    .*..    DCD    11002
        0x20000bd4:    00005d29    )]..    DCD    23849
        0x20000bd8:    00009288    ....    DCD    37512
        0x20000bdc:    0000048b    ....    DCD    1163
        0x20000be0:    00001686    ....    DCD    5766
        0x20000be4:    00008d48    H...    DCD    36168
        0x20000be8:    00004d4e    NM..    DCD    19790
        0x20000bec:    00004c0b    .L..    DCD    19467
        0x20000bf0:    00003f36    6?..    DCD    16182
        0x20000bf4:    00008229    )...    DCD    33321
        0x20000bf8:    0000435c    \C..    DCD    17244
        0x20000bfc:    0000155f    _...    DCD    5471
        0x20000c00:    00004558    XE..    DCD    17752
        0x20000c04:    00004a0a    .J..    DCD    18954
        0x20000c08:    00000b43    C...    DCD    2883
        0x20000c0c:    0000032a    *...    DCD    810
        0x20000c10:    00009c45    E...    DCD    40005
        0x20000c14:    0000783f    ?x..    DCD    30783
        0x20000c18:    0000530d    .S..    DCD    21261
        0x20000c1c:    000076a7    .v..    DCD    30375
        0x20000c20:    0000a57a    z...    DCD    42362
        0x20000c24:    00001244    D...    DCD    4676
        0x20000c28:    00005a43    CZ..    DCD    23107
        0x20000c2c:    0000588e    .X..    DCD    22670
        0x20000c30:    0000630d    .c..    DCD    25357
        0x20000c34:    00008b16    ....    DCD    35606
        0x20000c38:    0000863e    >...    DCD    34366
        0x20000c3c:    00002345    E#..    DCD    9029
    $t
        0x20000c40:    0249        I.      LSLS     r1,r1,#9
        0x20000c42:    488e        .H      LDR      r0,[pc,#568] ; [0x20000e7c] = 0x3086
        0x20000c44:    f000fb28    ..(.    BL       i2c1_wr_data ; 0x20001298
        0x20000c48:    498d        .I      LDR      r1,[pc,#564] ; [0x20000e80] = 0x3e10
        0x20000c4a:    488c        .H      LDR      r0,[pc,#560] ; [0x20000e7c] = 0x3086
        0x20000c4c:    f000fb24    ..$.    BL       i2c1_wr_data ; 0x20001298
        0x20000c50:    498c        .I      LDR      r1,[pc,#560] ; [0x20000e84] = 0x8d60
        0x20000c52:    488a        .H      LDR      r0,[pc,#552] ; [0x20000e7c] = 0x3086
        0x20000c54:    f000fb20    .. .    BL       i2c1_wr_data ; 0x20001298
        0x20000c58:    498b        .I      LDR      r1,[pc,#556] ; [0x20000e88] = 0x1244
        0x20000c5a:    4888        .H      LDR      r0,[pc,#544] ; [0x20000e7c] = 0x3086
        0x20000c5c:    f000fb1c    ....    BL       i2c1_wr_data ; 0x20001298
        0x20000c60:    498a        .I      LDR      r1,[pc,#552] ; [0x20000e8c] = 0x4bb9
        0x20000c62:    4886        .H      LDR      r0,[pc,#536] ; [0x20000e7c] = 0x3086
        0x20000c64:    f000fb18    ....    BL       i2c1_wr_data ; 0x20001298
        0x20000c68:    4989        .I      LDR      r1,[pc,#548] ; [0x20000e90] = 0x2c2c
        0x20000c6a:    4884        .H      LDR      r0,[pc,#528] ; [0x20000e7c] = 0x3086
        0x20000c6c:    f000fb14    ....    BL       i2c1_wr_data ; 0x20001298
        0x20000c70:    4987        .I      LDR      r1,[pc,#540] ; [0x20000e90] = 0x2c2c
        0x20000c72:    4882        .H      LDR      r0,[pc,#520] ; [0x20000e7c] = 0x3086
        0x20000c74:    f000fb10    ....    BL       i2c1_wr_data ; 0x20001298
        0x20000c78:    4983        .I      LDR      r1,[pc,#524] ; [0x20000e88] = 0x1244
        0x20000c7a:    313f        ?1      ADDS     r1,r1,#0x3f
        0x20000c7c:    487f        .H      LDR      r0,[pc,#508] ; [0x20000e7c] = 0x3086
        0x20000c7e:    306a        j0      ADDS     r0,r0,#0x6a
        0x20000c80:    f000fb0a    ....    BL       i2c1_wr_data ; 0x20001298
        0x20000c84:    4983        .I      LDR      r1,[pc,#524] ; [0x20000e94] = 0x1802
        0x20000c86:    487d        }H      LDR      r0,[pc,#500] ; [0x20000e7c] = 0x3086
        0x20000c88:    3822        "8      SUBS     r0,r0,#0x22
        0x20000c8a:    f000fb05    ....    BL       i2c1_wr_data ; 0x20001298
        0x20000c8e:    4982        .I      LDR      r1,[pc,#520] ; [0x20000e98] = 0xa0aa
        0x20000c90:    487b        {H      LDR      r0,[pc,#492] ; [0x20000e80] = 0x3e10
        0x20000c92:    30de        .0      ADDS     r0,r0,#0xde
        0x20000c94:    f000fb00    ....    BL       i2c1_wr_data ; 0x20001298
        0x20000c98:    4980        .I      LDR      r1,[pc,#512] ; [0x20000e9c] = 0x762c
        0x20000c9a:    4878        xH      LDR      r0,[pc,#480] ; [0x20000e7c] = 0x3086
        0x20000c9c:    3034        40      ADDS     r0,r0,#0x34
        0x20000c9e:    f000fafb    ....    BL       i2c1_wr_data ; 0x20001298
        0x20000ca2:    21f7        .!      MOVS     r1,#0xf7
        0x20000ca4:    0109        ..      LSLS     r1,r1,#4
        0x20000ca6:    487e        ~H      LDR      r0,[pc,#504] ; [0x20000ea0] = 0x3fa4
        0x20000ca8:    f000faf6    ....    BL       i2c1_wr_data ; 0x20001298
        0x20000cac:    21ff        .!      MOVS     r1,#0xff
        0x20000cae:    316b        k1      ADDS     r1,r1,#0x6b
        0x20000cb0:    4872        rH      LDR      r0,[pc,#456] ; [0x20000e7c] = 0x3086
        0x20000cb2:    3018        .0      ADDS     r0,r0,#0x18
        0x20000cb4:    f000faf0    ....    BL       i2c1_wr_data ; 0x20001298
        0x20000cb8:    497a        zI      LDR      r1,[pc,#488] ; [0x20000ea4] = 0xf880
        0x20000cba:    4870        pH      LDR      r0,[pc,#448] ; [0x20000e7c] = 0x3086
        0x20000cbc:    3010        .0      ADDS     r0,r0,#0x10
        0x20000cbe:    f000faeb    ....    BL       i2c1_wr_data ; 0x20001298
        0x20000cc2:    4978        xI      LDR      r1,[pc,#480] ; [0x20000ea4] = 0xf880
        0x20000cc4:    4876        vH      LDR      r0,[pc,#472] ; [0x20000ea0] = 0x3fa4
        0x20000cc6:    3872        r8      SUBS     r0,r0,#0x72
        0x20000cc8:    f000fae6    ....    BL       i2c1_wr_data ; 0x20001298
        0x20000ccc:    216f        o!      MOVS     r1,#0x6f
        0x20000cce:    486b        kH      LDR      r0,[pc,#428] ; [0x20000e7c] = 0x3086
        0x20000cd0:    300c        .0      ADDS     r0,r0,#0xc
        0x20000cd2:    f000fae1    ....    BL       i2c1_wr_data ; 0x20001298
        0x20000cd6:    4974        tI      LDR      r1,[pc,#464] ; [0x20000ea8] = 0x10d8
        0x20000cd8:    4868        hH      LDR      r0,[pc,#416] ; [0x20000e7c] = 0x3086
        0x20000cda:    386c        l8      SUBS     r0,r0,#0x6c
        0x20000cdc:    f000fadc    ....    BL       i2c1_wr_data ; 0x20001298
        0x20000ce0:    4971        qI      LDR      r1,[pc,#452] ; [0x20000ea8] = 0x10d8
        0x20000ce2:    3140        @1      ADDS     r1,r1,#0x40
        0x20000ce4:    4865        eH      LDR      r0,[pc,#404] ; [0x20000e7c] = 0x3086
        0x20000ce6:    302a        *0      ADDS     r0,r0,#0x2a
        0x20000ce8:    f000fad6    ....    BL       i2c1_wr_data ; 0x20001298
        0x20000cec:    496f        oI      LDR      r1,[pc,#444] ; [0x20000eac] = 0xc0c
        0x20000cee:    4870        pH      LDR      r0,[pc,#448] ; [0x20000eb0] = 0x31ac
        0x20000cf0:    f000fad2    ....    BL       i2c1_wr_data ; 0x20001298
        0x20000cf4:    2108        .!      MOVS     r1,#8
        0x20000cf6:    4861        aH      LDR      r0,[pc,#388] ; [0x20000e7c] = 0x3086
        0x20000cf8:    385c        \8      SUBS     r0,r0,#0x5c
        0x20000cfa:    f000facd    ....    BL       i2c1_wr_data ; 0x20001298
        0x20000cfe:    2101        .!      MOVS     r1,#1
        0x20000d00:    485e        ^H      LDR      r0,[pc,#376] ; [0x20000e7c] = 0x3086
        0x20000d02:    385a        Z8      SUBS     r0,r0,#0x5a
        0x20000d04:    f000fac8    ....    BL       i2c1_wr_data ; 0x20001298
        0x20000d08:    2102        .!      MOVS     r1,#2
        0x20000d0a:    485c        \H      LDR      r0,[pc,#368] ; [0x20000e7c] = 0x3086
        0x20000d0c:    3858        X8      SUBS     r0,r0,#0x58
        0x20000d0e:    f000fac3    ....    BL       i2c1_wr_data ; 0x20001298
        0x20000d12:    212c        ,!      MOVS     r1,#0x2c
        0x20000d14:    4859        YH      LDR      r0,[pc,#356] ; [0x20000e7c] = 0x3086
        0x20000d16:    3856        V8      SUBS     r0,r0,#0x56
        0x20000d18:    f000fabe    ....    BL       i2c1_wr_data ; 0x20001298
        0x20000d1c:    210c        .!      MOVS     r1,#0xc
        0x20000d1e:    4857        WH      LDR      r0,[pc,#348] ; [0x20000e7c] = 0x3086
        0x20000d20:    3850        P8      SUBS     r0,r0,#0x50
        0x20000d22:    f000fab9    ....    BL       i2c1_wr_data ; 0x20001298
        0x20000d26:    2101        .!      MOVS     r1,#1
        0x20000d28:    4854        TH      LDR      r0,[pc,#336] ; [0x20000e7c] = 0x3086
        0x20000d2a:    384e        N8      SUBS     r0,r0,#0x4e
        0x20000d2c:    f000fab4    ....    BL       i2c1_wr_data ; 0x20001298
        0x20000d30:    2100        .!      MOVS     r1,#0
        0x20000d32:    4852        RH      LDR      r0,[pc,#328] ; [0x20000e7c] = 0x3086
        0x20000d34:    3884        .8      SUBS     r0,r0,#0x84
        0x20000d36:    f000faaf    ....    BL       i2c1_wr_data ; 0x20001298
        0x20000d3a:    2100        .!      MOVS     r1,#0
        0x20000d3c:    484f        OH      LDR      r0,[pc,#316] ; [0x20000e7c] = 0x3086
        0x20000d3e:    3882        .8      SUBS     r0,r0,#0x82
        0x20000d40:    f000faaa    ....    BL       i2c1_wr_data ; 0x20001298
        0x20000d44:    495b        [I      LDR      r1,[pc,#364] ; [0x20000eb4] = 0x437
        0x20000d46:    484d        MH      LDR      r0,[pc,#308] ; [0x20000e7c] = 0x3086
        0x20000d48:    3880        .8      SUBS     r0,r0,#0x80
        0x20000d4a:    f000faa5    ....    BL       i2c1_wr_data ; 0x20001298
        0x20000d4e:    495a        ZI      LDR      r1,[pc,#360] ; [0x20000eb8] = 0x77f
        0x20000d50:    484a        JH      LDR      r0,[pc,#296] ; [0x20000e7c] = 0x3086
        0x20000d52:    387e        ~8      SUBS     r0,r0,#0x7e
        0x20000d54:    f000faa0    ....    BL       i2c1_wr_data ; 0x20001298
        0x20000d58:    4956        VI      LDR      r1,[pc,#344] ; [0x20000eb4] = 0x437
        0x20000d5a:    312e        .1      ADDS     r1,r1,#0x2e
        0x20000d5c:    4847        GH      LDR      r0,[pc,#284] ; [0x20000e7c] = 0x3086
        0x20000d5e:    387c        |8      SUBS     r0,r0,#0x7c
        0x20000d60:    f000fa9a    ....    BL       i2c1_wr_data ; 0x20001298
        0x20000d64:    4953        SI      LDR      r1,[pc,#332] ; [0x20000eb4] = 0x437
        0x20000d66:    3115        .1      ADDS     r1,r1,#0x15
        0x20000d68:    4844        DH      LDR      r0,[pc,#272] ; [0x20000e7c] = 0x3086
        0x20000d6a:    387a        z8      SUBS     r0,r0,#0x7a
        0x20000d6c:    f000fa94    ....    BL       i2c1_wr_data ; 0x20001298
        0x20000d70:    4950        PI      LDR      r1,[pc,#320] ; [0x20000eb4] = 0x437
        0x20000d72:    3921        !9      SUBS     r1,r1,#0x21
        0x20000d74:    4841        AH      LDR      r0,[pc,#260] ; [0x20000e7c] = 0x3086
        0x20000d76:    3874        t8      SUBS     r0,r0,#0x74
        0x20000d78:    f000fa8e    ....    BL       i2c1_wr_data ; 0x20001298
        0x20000d7c:    2101        .!      MOVS     r1,#1
        0x20000d7e:    483f        ?H      LDR      r0,[pc,#252] ; [0x20000e7c] = 0x3086
        0x20000d80:    301c        .0      ADDS     r0,r0,#0x1c
        0x20000d82:    f000fa89    ....    BL       i2c1_wr_data ; 0x20001298
        0x20000d86:    2101        .!      MOVS     r1,#1
        0x20000d88:    483c        <H      LDR      r0,[pc,#240] ; [0x20000e7c] = 0x3086
        0x20000d8a:    3020         0      ADDS     r0,r0,#0x20
        0x20000d8c:    f000fa84    ....    BL       i2c1_wr_data ; 0x20001298
        0x20000d90:    2101        .!      MOVS     r1,#1
        0x20000d92:    483a        :H      LDR      r0,[pc,#232] ; [0x20000e7c] = 0x3086
        0x20000d94:    3028        (0      ADDS     r0,r0,#0x28
        0x20000d96:    f000fa7f    ....    BL       i2c1_wr_data ; 0x20001298
        0x20000d9a:    2101        .!      MOVS     r1,#1
        0x20000d9c:    4837        7H      LDR      r0,[pc,#220] ; [0x20000e7c] = 0x3086
        0x20000d9e:    3022        "0      ADDS     r0,r0,#0x22
        0x20000da0:    f000fa7a    ..z.    BL       i2c1_wr_data ; 0x20001298
        0x20000da4:    2101        .!      MOVS     r1,#1
        0x20000da6:    0389        ..      LSLS     r1,r1,#14
        0x20000da8:    20c1        .       MOVS     r0,#0xc1
        0x20000daa:    0180        ..      LSLS     r0,r0,#6
        0x20000dac:    f000fa74    ..t.    BL       i2c1_wr_data ; 0x20001298
        0x20000db0:    4942        BI      LDR      r1,[pc,#264] ; [0x20000ebc] = 0x301
        0x20000db2:    483f        ?H      LDR      r0,[pc,#252] ; [0x20000eb0] = 0x31ac
        0x20000db4:    1c80        ..      ADDS     r0,r0,#2
        0x20000db6:    f000fa6f    ..o.    BL       i2c1_wr_data ; 0x20001298
        0x20000dba:    2109        .!      MOVS     r1,#9
        0x20000dbc:    482f        /H      LDR      r0,[pc,#188] ; [0x20000e7c] = 0x3086
        0x20000dbe:    1f00        ..      SUBS     r0,r0,#4
        0x20000dc0:    f000fa6a    ..j.    BL       i2c1_wr_data ; 0x20001298
        0x20000dc4:    4935        5I      LDR      r1,[pc,#212] ; [0x20000e9c] = 0x762c
        0x20000dc6:    482d        -H      LDR      r0,[pc,#180] ; [0x20000e7c] = 0x3086
        0x20000dc8:    3034        40      ADDS     r0,r0,#0x34
        0x20000dca:    f000fa65    ..e.    BL       i2c1_wr_data ; 0x20001298
        0x20000dce:    2180        .!      MOVS     r1,#0x80
        0x20000dd0:    482a        *H      LDR      r0,[pc,#168] ; [0x20000e7c] = 0x3086
        0x20000dd2:    3010        .0      ADDS     r0,r0,#0x10
        0x20000dd4:    f000fa60    ..`.    BL       i2c1_wr_data ; 0x20001298
        0x20000dd8:    2180        .!      MOVS     r1,#0x80
        0x20000dda:    4828        (H      LDR      r0,[pc,#160] ; [0x20000e7c] = 0x3086
        0x20000ddc:    3012        .0      ADDS     r0,r0,#0x12
        0x20000dde:    f000fa5b    ..[.    BL       i2c1_wr_data ; 0x20001298
        0x20000de2:    2104        .!      MOVS     r1,#4
        0x20000de4:    4825        %H      LDR      r0,[pc,#148] ; [0x20000e7c] = 0x3086
        0x20000de6:    3826        &8      SUBS     r0,r0,#0x26
        0x20000de8:    f000fa56    ..V.    BL       i2c1_wr_data ; 0x20001298
        0x20000dec:    2104        .!      MOVS     r1,#4
        0x20000dee:    2031        1       MOVS     r0,#0x31
        0x20000df0:    0200        ..      LSLS     r0,r0,#8
        0x20000df2:    f000fa51    ..Q.    BL       i2c1_wr_data ; 0x20001298
        0x20000df6:    2100        .!      MOVS     r1,#0
        0x20000df8:    482d        -H      LDR      r0,[pc,#180] ; [0x20000eb0] = 0x31ac
        0x20000dfa:    3024        $0      ADDS     r0,r0,#0x24
        0x20000dfc:    f000fa4c    ..L.    BL       i2c1_wr_data ; 0x20001298
        0x20000e00:    492f        /I      LDR      r1,[pc,#188] ; [0x20000ec0] = 0x1982
        0x20000e02:    481e        .H      LDR      r0,[pc,#120] ; [0x20000e7c] = 0x3086
        0x20000e04:    3822        "8      SUBS     r0,r0,#0x22
        0x20000e06:    f000fa47    ..G.    BL       i2c1_wr_data ; 0x20001298
        0x20000e0a:    4927        'I      LDR      r1,[pc,#156] ; [0x20000ea8] = 0x10d8
        0x20000e0c:    1d09        ..      ADDS     r1,r1,#4
        0x20000e0e:    481b        .H      LDR      r0,[pc,#108] ; [0x20000e7c] = 0x3086
        0x20000e10:    386c        l8      SUBS     r0,r0,#0x6c
        0x20000e12:    f000fa41    ..A.    BL       i2c1_wr_data ; 0x20001298
        0x20000e16:    482b        +H      LDR      r0,[pc,#172] ; [0x20000ec4] = 0x80e8
        0x20000e18:    f000f87c    ..|.    BL       delay ; 0x20000f14
        0x20000e1c:    bd10        ..      POP      {r4,pc}
    DSP2_IRQHandler
        0x20000e1e:    b570        p.      PUSH     {r4-r6,lr}
        0x20000e20:    2001        .       MOVS     r0,#1
        0x20000e22:    4929        )I      LDR      r1,[pc,#164] ; [0x20000ec8] = 0x2000400a
        0x20000e24:    7008        .p      STRB     r0,[r1,#0]
        0x20000e26:    4829        )H      LDR      r0,[pc,#164] ; [0x20000ecc] = 0x400093c0
        0x20000e28:    6ac0        .j      LDR      r0,[r0,#0x2c]
        0x20000e2a:    b280        ..      UXTH     r0,r0
        0x20000e2c:    4928        (I      LDR      r1,[pc,#160] ; [0x20000ed0] = 0x20004008
        0x20000e2e:    8809        ..      LDRH     r1,[r1,#0]
        0x20000e30:    4348        HC      MULS     r0,r1,r0
        0x20000e32:    4605        .F      MOV      r5,r0
        0x20000e34:    4827        'H      LDR      r0,[pc,#156] ; [0x20000ed4] = 0xffff00
        0x20000e36:    4028        (@      ANDS     r0,r0,r5
        0x20000e38:    0a04        ..      LSRS     r4,r0,#8
        0x20000e3a:    2001        .       MOVS     r0,#1
        0x20000e3c:    0280        ..      LSLS     r0,r0,#10
        0x20000e3e:    4284        .B      CMP      r4,r0
        0x20000e40:    dd05        ..      BLE      0x20000e4e ; DSP2_IRQHandler + 48
        0x20000e42:    4601        .F      MOV      r1,r0
        0x20000e44:    480d        .H      LDR      r0,[pc,#52] ; [0x20000e7c] = 0x3086
        0x20000e46:    3874        t8      SUBS     r0,r0,#0x74
        0x20000e48:    f000fa26    ..&.    BL       i2c1_wr_data ; 0x20001298
        0x20000e4c:    e00c        ..      B        0x20000e68 ; DSP2_IRQHandler + 74
        0x20000e4e:    2c40        @,      CMP      r4,#0x40
        0x20000e50:    da05        ..      BGE      0x20000e5e ; DSP2_IRQHandler + 64
        0x20000e52:    2140        @!      MOVS     r1,#0x40
        0x20000e54:    4809        .H      LDR      r0,[pc,#36] ; [0x20000e7c] = 0x3086
        0x20000e56:    3874        t8      SUBS     r0,r0,#0x74
        0x20000e58:    f000fa1e    ....    BL       i2c1_wr_data ; 0x20001298
        0x20000e5c:    e004        ..      B        0x20000e68 ; DSP2_IRQHandler + 74
        0x20000e5e:    4621        !F      MOV      r1,r4
        0x20000e60:    4806        .H      LDR      r0,[pc,#24] ; [0x20000e7c] = 0x3086
        0x20000e62:    3874        t8      SUBS     r0,r0,#0x74
        0x20000e64:    f000fa18    ....    BL       i2c1_wr_data ; 0x20001298
        0x20000e68:    2c40        @,      CMP      r4,#0x40
        0x20000e6a:    dc03        ..      BGT      0x20000e74 ; DSP2_IRQHandler + 86
        0x20000e6c:    2040        @       MOVS     r0,#0x40
        0x20000e6e:    4918        .I      LDR      r1,[pc,#96] ; [0x20000ed0] = 0x20004008
        0x20000e70:    8008        ..      STRH     r0,[r1,#0]
        0x20000e72:    e001        ..      B        0x20000e78 ; DSP2_IRQHandler + 90
        0x20000e74:    4816        .H      LDR      r0,[pc,#88] ; [0x20000ed0] = 0x20004008
        0x20000e76:    8004        ..      STRH     r4,[r0,#0]
        0x20000e78:    bd70        p.      POP      {r4-r6,pc}
    $d
        0x20000e7a:    0000        ..      DCW    0
        0x20000e7c:    00003086    .0..    DCD    12422
        0x20000e80:    00003e10    .>..    DCD    15888
        0x20000e84:    00008d60    `...    DCD    36192
        0x20000e88:    00001244    D...    DCD    4676
        0x20000e8c:    00004bb9    .K..    DCD    19385
        0x20000e90:    00002c2c    ,,..    DCD    11308
        0x20000e94:    00001802    ....    DCD    6146
        0x20000e98:    0000a0aa    ....    DCD    41130
        0x20000e9c:    0000762c    ,v..    DCD    30252
        0x20000ea0:    00003fa4    .?..    DCD    16292
        0x20000ea4:    0000f880    ....    DCD    63616
        0x20000ea8:    000010d8    ....    DCD    4312
        0x20000eac:    00000c0c    ....    DCD    3084
        0x20000eb0:    000031ac    .1..    DCD    12716
        0x20000eb4:    00000437    7...    DCD    1079
        0x20000eb8:    0000077f    ....    DCD    1919
        0x20000ebc:    00000301    ....    DCD    769
        0x20000ec0:    00001982    ....    DCD    6530
        0x20000ec4:    000080e8    ....    DCD    33000
        0x20000ec8:    2000400a    .@.     DCD    536887306
        0x20000ecc:    400093c0    ...@    DCD    1073779648
        0x20000ed0:    20004008    .@.     DCD    536887304
        0x20000ed4:    00ffff00    ....    DCD    16776960
    $t
    .text
    CalCRC8
        0x20000ed8:    b570        p.      PUSH     {r4-r6,lr}
        0x20000eda:    4602        .F      MOV      r2,r0
        0x20000edc:    460b        .F      MOV      r3,r1
        0x20000ede:    4614        .F      MOV      r4,r2
        0x20000ee0:    2100        .!      MOVS     r1,#0
        0x20000ee2:    461e        .F      MOV      r6,r3
        0x20000ee4:    e012        ..      B        0x20000f0c ; CalCRC8 + 52
        0x20000ee6:    7820         x      LDRB     r0,[r4,#0]
        0x20000ee8:    0200        ..      LSLS     r0,r0,#8
        0x20000eea:    4041        A@      EORS     r1,r1,r0
        0x20000eec:    2508        .%      MOVS     r5,#8
        0x20000eee:    e009        ..      B        0x20000f04 ; CalCRC8 + 44
        0x20000ef0:    2001        .       MOVS     r0,#1
        0x20000ef2:    03c0        ..      LSLS     r0,r0,#15
        0x20000ef4:    4008        .@      ANDS     r0,r0,r1
        0x20000ef6:    2800        .(      CMP      r0,#0
        0x20000ef8:    d001        ..      BEQ      0x20000efe ; CalCRC8 + 38
        0x20000efa:    480b        .H      LDR      r0,[pc,#44] ; [0x20000f28] = 0x8380
        0x20000efc:    4041        A@      EORS     r1,r1,r0
        0x20000efe:    0448        H.      LSLS     r0,r1,#17
        0x20000f00:    0c01        ..      LSRS     r1,r0,#16
        0x20000f02:    1e6d        m.      SUBS     r5,r5,#1
        0x20000f04:    2d00        .-      CMP      r5,#0
        0x20000f06:    d1f3        ..      BNE      0x20000ef0 ; CalCRC8 + 24
        0x20000f08:    1e76        v.      SUBS     r6,r6,#1
        0x20000f0a:    1c64        d.      ADDS     r4,r4,#1
        0x20000f0c:    2e00        ..      CMP      r6,#0
        0x20000f0e:    d1ea        ..      BNE      0x20000ee6 ; CalCRC8 + 14
        0x20000f10:    1208        ..      ASRS     r0,r1,#8
        0x20000f12:    bd70        p.      POP      {r4-r6,pc}
    delay
        0x20000f14:    b501        ..      PUSH     {r0,lr}
        0x20000f16:    e002        ..      B        0x20000f1e ; delay + 10
        0x20000f18:    9800        ..      LDR      r0,[sp,#0]
        0x20000f1a:    1e40        @.      SUBS     r0,r0,#1
        0x20000f1c:    9000        ..      STR      r0,[sp,#0]
        0x20000f1e:    9800        ..      LDR      r0,[sp,#0]
        0x20000f20:    2800        .(      CMP      r0,#0
        0x20000f22:    d1f9        ..      BNE      0x20000f18 ; delay + 4
        0x20000f24:    bd08        ..      POP      {r3,pc}
    $d
        0x20000f26:    0000        ..      DCW    0
        0x20000f28:    00008380    ....    DCD    33664
    $t
    .text
    GPIO_Init
        0x20000f2c:    2801        .(      CMP      r0,#1
        0x20000f2e:    d107        ..      BNE      0x20000f40 ; GPIO_Init + 20
        0x20000f30:    4a20         J      LDR      r2,[pc,#128] ; [0x20000fb4] = 0x40006400
        0x20000f32:    6812        .h      LDR      r2,[r2,#0]
        0x20000f34:    2301        .#      MOVS     r3,#1
        0x20000f36:    408b        .@      LSLS     r3,r3,r1
        0x20000f38:    431a        .C      ORRS     r2,r2,r3
        0x20000f3a:    4b1e        .K      LDR      r3,[pc,#120] ; [0x20000fb4] = 0x40006400
        0x20000f3c:    601a        .`      STR      r2,[r3,#0]
        0x20000f3e:    e006        ..      B        0x20000f4e ; GPIO_Init + 34
        0x20000f40:    4a1c        .J      LDR      r2,[pc,#112] ; [0x20000fb4] = 0x40006400
        0x20000f42:    6812        .h      LDR      r2,[r2,#0]
        0x20000f44:    2301        .#      MOVS     r3,#1
        0x20000f46:    408b        .@      LSLS     r3,r3,r1
        0x20000f48:    439a        .C      BICS     r2,r2,r3
        0x20000f4a:    4b1a        .K      LDR      r3,[pc,#104] ; [0x20000fb4] = 0x40006400
        0x20000f4c:    601a        .`      STR      r2,[r3,#0]
        0x20000f4e:    4770        pG      BX       lr
    GPIO_SetBit
        0x20000f50:    1c82        ..      ADDS     r2,r0,#2
        0x20000f52:    2101        .!      MOVS     r1,#1
        0x20000f54:    4091        .@      LSLS     r1,r1,r2
        0x20000f56:    4a18        .J      LDR      r2,[pc,#96] ; [0x20000fb8] = 0x40006000
        0x20000f58:    1889        ..      ADDS     r1,r1,r2
        0x20000f5a:    6809        .h      LDR      r1,[r1,#0]
        0x20000f5c:    2201        ."      MOVS     r2,#1
        0x20000f5e:    4082        .@      LSLS     r2,r2,r0
        0x20000f60:    4311        .C      ORRS     r1,r1,r2
        0x20000f62:    1c82        ..      ADDS     r2,r0,#2
        0x20000f64:    2301        .#      MOVS     r3,#1
        0x20000f66:    4093        .@      LSLS     r3,r3,r2
        0x20000f68:    4a13        .J      LDR      r2,[pc,#76] ; [0x20000fb8] = 0x40006000
        0x20000f6a:    189a        ..      ADDS     r2,r3,r2
        0x20000f6c:    6011        .`      STR      r1,[r2,#0]
        0x20000f6e:    4770        pG      BX       lr
    GPIO_ResetBit
        0x20000f70:    1c81        ..      ADDS     r1,r0,#2
        0x20000f72:    2201        ."      MOVS     r2,#1
        0x20000f74:    408a        .@      LSLS     r2,r2,r1
        0x20000f76:    4910        .I      LDR      r1,[pc,#64] ; [0x20000fb8] = 0x40006000
        0x20000f78:    1851        Q.      ADDS     r1,r2,r1
        0x20000f7a:    6809        .h      LDR      r1,[r1,#0]
        0x20000f7c:    2201        ."      MOVS     r2,#1
        0x20000f7e:    4082        .@      LSLS     r2,r2,r0
        0x20000f80:    4391        .C      BICS     r1,r1,r2
        0x20000f82:    1c82        ..      ADDS     r2,r0,#2
        0x20000f84:    2301        .#      MOVS     r3,#1
        0x20000f86:    4093        .@      LSLS     r3,r3,r2
        0x20000f88:    4a0b        .J      LDR      r2,[pc,#44] ; [0x20000fb8] = 0x40006000
        0x20000f8a:    189a        ..      ADDS     r2,r3,r2
        0x20000f8c:    6011        .`      STR      r1,[r2,#0]
        0x20000f8e:    4770        pG      BX       lr
    GPIO_ReadOutputDataBit
        0x20000f90:    4601        .F      MOV      r1,r0
        0x20000f92:    1c88        ..      ADDS     r0,r1,#2
        0x20000f94:    2201        ."      MOVS     r2,#1
        0x20000f96:    4082        .@      LSLS     r2,r2,r0
        0x20000f98:    4807        .H      LDR      r0,[pc,#28] ; [0x20000fb8] = 0x40006000
        0x20000f9a:    1810        ..      ADDS     r0,r2,r0
        0x20000f9c:    6800        .h      LDR      r0,[r0,#0]
        0x20000f9e:    2201        ."      MOVS     r2,#1
        0x20000fa0:    408a        .@      LSLS     r2,r2,r1
        0x20000fa2:    4010        .@      ANDS     r0,r0,r2
        0x20000fa4:    2800        .(      CMP      r0,#0
        0x20000fa6:    d001        ..      BEQ      0x20000fac ; GPIO_ReadOutputDataBit + 28
        0x20000fa8:    2001        .       MOVS     r0,#1
        0x20000faa:    4770        pG      BX       lr
        0x20000fac:    2000        .       MOVS     r0,#0
        0x20000fae:    e7fc        ..      B        0x20000faa ; GPIO_ReadOutputDataBit + 26
    GPIO0_IRQHandler
        0x20000fb0:    4770        pG      BX       lr
    $d
        0x20000fb2:    0000        ..      DCW    0
        0x20000fb4:    40006400    .d.@    DCD    1073767424
        0x20000fb8:    40006000    .`.@    DCD    1073766400
    $t
    .text
    i2c0_init
        0x20000fbc:    4855        UH      LDR      r0,[pc,#340] ; [0x20001114] = 0x40002040
        0x20000fbe:    6ac0        .j      LDR      r0,[r0,#0x2c]
        0x20000fc0:    0840        @.      LSRS     r0,r0,#1
        0x20000fc2:    0040        @.      LSLS     r0,r0,#1
        0x20000fc4:    4953        SI      LDR      r1,[pc,#332] ; [0x20001114] = 0x40002040
        0x20000fc6:    62c8        .b      STR      r0,[r1,#0x2c]
        0x20000fc8:    2018        .       MOVS     r0,#0x18
        0x20000fca:    4952        RI      LDR      r1,[pc,#328] ; [0x20001114] = 0x40002040
        0x20000fcc:    3940        @9      SUBS     r1,r1,#0x40
        0x20000fce:    6088        .`      STR      r0,[r1,#8]
        0x20000fd0:    4608        .F      MOV      r0,r1
        0x20000fd2:    6800        .h      LDR      r0,[r0,#0]
        0x20000fd4:    2108        .!      MOVS     r1,#8
        0x20000fd6:    4388        .C      BICS     r0,r0,r1
        0x20000fd8:    494e        NI      LDR      r1,[pc,#312] ; [0x20001114] = 0x40002040
        0x20000fda:    3940        @9      SUBS     r1,r1,#0x40
        0x20000fdc:    6008        .`      STR      r0,[r1,#0]
        0x20000fde:    4608        .F      MOV      r0,r1
        0x20000fe0:    6800        .h      LDR      r0,[r0,#0]
        0x20000fe2:    2104        .!      MOVS     r1,#4
        0x20000fe4:    4388        .C      BICS     r0,r0,r1
        0x20000fe6:    494b        KI      LDR      r1,[pc,#300] ; [0x20001114] = 0x40002040
        0x20000fe8:    3940        @9      SUBS     r1,r1,#0x40
        0x20000fea:    6008        .`      STR      r0,[r1,#0]
        0x20000fec:    4608        .F      MOV      r0,r1
        0x20000fee:    6800        .h      LDR      r0,[r0,#0]
        0x20000ff0:    2102        .!      MOVS     r1,#2
        0x20000ff2:    4308        .C      ORRS     r0,r0,r1
        0x20000ff4:    4947        GI      LDR      r1,[pc,#284] ; [0x20001114] = 0x40002040
        0x20000ff6:    3940        @9      SUBS     r1,r1,#0x40
        0x20000ff8:    6008        .`      STR      r0,[r1,#0]
        0x20000ffa:    4608        .F      MOV      r0,r1
        0x20000ffc:    6800        .h      LDR      r0,[r0,#0]
        0x20000ffe:    0840        @.      LSRS     r0,r0,#1
        0x20001000:    0040        @.      LSLS     r0,r0,#1
        0x20001002:    6008        .`      STR      r0,[r1,#0]
        0x20001004:    4608        .F      MOV      r0,r1
        0x20001006:    6800        .h      LDR      r0,[r0,#0]
        0x20001008:    2140        @!      MOVS     r1,#0x40
        0x2000100a:    4388        .C      BICS     r0,r0,r1
        0x2000100c:    4941        AI      LDR      r1,[pc,#260] ; [0x20001114] = 0x40002040
        0x2000100e:    3940        @9      SUBS     r1,r1,#0x40
        0x20001010:    6008        .`      STR      r0,[r1,#0]
        0x20001012:    2002        .       MOVS     r0,#2
        0x20001014:    6008        .`      STR      r0,[r1,#0]
        0x20001016:    2000        .       MOVS     r0,#0
        0x20001018:    6388        .c      STR      r0,[r1,#0x38]
        0x2000101a:    63c8        .c      STR      r0,[r1,#0x3c]
        0x2000101c:    2024        $       MOVS     r0,#0x24
        0x2000101e:    6308        .c      STR      r0,[r1,#0x30]
        0x20001020:    483c        <H      LDR      r0,[pc,#240] ; [0x20001114] = 0x40002040
        0x20001022:    6ac0        .j      LDR      r0,[r0,#0x2c]
        0x20001024:    2101        .!      MOVS     r1,#1
        0x20001026:    4308        .C      ORRS     r0,r0,r1
        0x20001028:    493a        :I      LDR      r1,[pc,#232] ; [0x20001114] = 0x40002040
        0x2000102a:    62c8        .b      STR      r0,[r1,#0x2c]
        0x2000102c:    4770        pG      BX       lr
    hs_i2c0_send
        0x2000102e:    4939        9I      LDR      r1,[pc,#228] ; [0x20001114] = 0x40002040
        0x20001030:    3940        @9      SUBS     r1,r1,#0x40
        0x20001032:    6108        .a      STR      r0,[r1,#0x10]
        0x20001034:    4770        pG      BX       lr
    hs_i2c0_send_str
        0x20001036:    b500        ..      PUSH     {lr}
        0x20001038:    4602        .F      MOV      r2,r0
        0x2000103a:    460b        .F      MOV      r3,r1
        0x2000103c:    e003        ..      B        0x20001046 ; hs_i2c0_send_str + 16
        0x2000103e:    7810        .x      LDRB     r0,[r2,#0]
        0x20001040:    f7fffff5    ....    BL       hs_i2c0_send ; 0x2000102e
        0x20001044:    1c52        R.      ADDS     r2,r2,#1
        0x20001046:    4618        .F      MOV      r0,r3
        0x20001048:    1e5b        [.      SUBS     r3,r3,#1
        0x2000104a:    2800        .(      CMP      r0,#0
        0x2000104c:    d1f7        ..      BNE      0x2000103e ; hs_i2c0_send_str + 8
        0x2000104e:    bd00        ..      POP      {pc}
    I2C0_IRQHandler
        0x20001050:    4930        0I      LDR      r1,[pc,#192] ; [0x20001114] = 0x40002040
        0x20001052:    3940        @9      SUBS     r1,r1,#0x40
        0x20001054:    6b49        Ik      LDR      r1,[r1,#0x34]
        0x20001056:    2220         "      MOVS     r2,#0x20
        0x20001058:    4011        .@      ANDS     r1,r1,r2
        0x2000105a:    2900        .)      CMP      r1,#0
        0x2000105c:    d02e        ..      BEQ      0x200010bc ; I2C0_IRQHandler + 108
        0x2000105e:    492e        .I      LDR      r1,[pc,#184] ; [0x20001118] = 0x200047e0
        0x20001060:    7809        .x      LDRB     r1,[r1,#0]
        0x20001062:    4a2c        ,J      LDR      r2,[pc,#176] ; [0x20001114] = 0x40002040
        0x20001064:    3a40        @:      SUBS     r2,r2,#0x40
        0x20001066:    6111        .a      STR      r1,[r2,#0x10]
        0x20001068:    492b        +I      LDR      r1,[pc,#172] ; [0x20001118] = 0x200047e0
        0x2000106a:    7849        Ix      LDRB     r1,[r1,#1]
        0x2000106c:    6111        .a      STR      r1,[r2,#0x10]
        0x2000106e:    492a        *I      LDR      r1,[pc,#168] ; [0x20001118] = 0x200047e0
        0x20001070:    7889        .x      LDRB     r1,[r1,#2]
        0x20001072:    6111        .a      STR      r1,[r2,#0x10]
        0x20001074:    4928        (I      LDR      r1,[pc,#160] ; [0x20001118] = 0x200047e0
        0x20001076:    78c9        .x      LDRB     r1,[r1,#3]
        0x20001078:    6111        .a      STR      r1,[r2,#0x10]
        0x2000107a:    4927        'I      LDR      r1,[pc,#156] ; [0x20001118] = 0x200047e0
        0x2000107c:    7909        .y      LDRB     r1,[r1,#4]
        0x2000107e:    6111        .a      STR      r1,[r2,#0x10]
        0x20001080:    4925        %I      LDR      r1,[pc,#148] ; [0x20001118] = 0x200047e0
        0x20001082:    7949        Iy      LDRB     r1,[r1,#5]
        0x20001084:    6111        .a      STR      r1,[r2,#0x10]
        0x20001086:    4924        $I      LDR      r1,[pc,#144] ; [0x20001118] = 0x200047e0
        0x20001088:    7989        .y      LDRB     r1,[r1,#6]
        0x2000108a:    6111        .a      STR      r1,[r2,#0x10]
        0x2000108c:    4922        "I      LDR      r1,[pc,#136] ; [0x20001118] = 0x200047e0
        0x2000108e:    79c9        .y      LDRB     r1,[r1,#7]
        0x20001090:    6111        .a      STR      r1,[r2,#0x10]
        0x20001092:    4921        !I      LDR      r1,[pc,#132] ; [0x20001118] = 0x200047e0
        0x20001094:    7a09        .z      LDRB     r1,[r1,#8]
        0x20001096:    6111        .a      STR      r1,[r2,#0x10]
        0x20001098:    491f        .I      LDR      r1,[pc,#124] ; [0x20001118] = 0x200047e0
        0x2000109a:    7a49        Iz      LDRB     r1,[r1,#9]
        0x2000109c:    6111        .a      STR      r1,[r2,#0x10]
        0x2000109e:    491e        .I      LDR      r1,[pc,#120] ; [0x20001118] = 0x200047e0
        0x200010a0:    7a89        .z      LDRB     r1,[r1,#0xa]
        0x200010a2:    6111        .a      STR      r1,[r2,#0x10]
        0x200010a4:    491c        .I      LDR      r1,[pc,#112] ; [0x20001118] = 0x200047e0
        0x200010a6:    7ac9        .z      LDRB     r1,[r1,#0xb]
        0x200010a8:    6111        .a      STR      r1,[r2,#0x10]
        0x200010aa:    491b        .I      LDR      r1,[pc,#108] ; [0x20001118] = 0x200047e0
        0x200010ac:    7b09        .{      LDRB     r1,[r1,#0xc]
        0x200010ae:    6111        .a      STR      r1,[r2,#0x10]
        0x200010b0:    4919        .I      LDR      r1,[pc,#100] ; [0x20001118] = 0x200047e0
        0x200010b2:    7b49        I{      LDRB     r1,[r1,#0xd]
        0x200010b4:    6111        .a      STR      r1,[r2,#0x10]
        0x200010b6:    4917        .I      LDR      r1,[pc,#92] ; [0x20001114] = 0x40002040
        0x200010b8:    6909        .i      LDR      r1,[r1,#0x10]
        0x200010ba:    b2c8        ..      UXTB     r0,r1
        0x200010bc:    4915        .I      LDR      r1,[pc,#84] ; [0x20001114] = 0x40002040
        0x200010be:    3940        @9      SUBS     r1,r1,#0x40
        0x200010c0:    6b49        Ik      LDR      r1,[r1,#0x34]
        0x200010c2:    2204        ."      MOVS     r2,#4
        0x200010c4:    4011        .@      ANDS     r1,r1,r2
        0x200010c6:    2900        .)      CMP      r1,#0
        0x200010c8:    d022        ".      BEQ      0x20001110 ; I2C0_IRQHandler + 192
        0x200010ca:    4a12        .J      LDR      r2,[pc,#72] ; [0x20001114] = 0x40002040
        0x200010cc:    3a40        @:      SUBS     r2,r2,#0x40
        0x200010ce:    6912        .i      LDR      r2,[r2,#0x10]
        0x200010d0:    b2d1        ..      UXTB     r1,r2
        0x200010d2:    4a12        .J      LDR      r2,[pc,#72] ; [0x2000111c] = 0x20004010
        0x200010d4:    4b12        .K      LDR      r3,[pc,#72] ; [0x20001120] = 0x20004004
        0x200010d6:    681b        .h      LDR      r3,[r3,#0]
        0x200010d8:    54d1        .T      STRB     r1,[r2,r3]
        0x200010da:    4a11        .J      LDR      r2,[pc,#68] ; [0x20001120] = 0x20004004
        0x200010dc:    6812        .h      LDR      r2,[r2,#0]
        0x200010de:    1c52        R.      ADDS     r2,r2,#1
        0x200010e0:    4b0f        .K      LDR      r3,[pc,#60] ; [0x20001120] = 0x20004004
        0x200010e2:    601a        .`      STR      r2,[r3,#0]
        0x200010e4:    4a0d        .J      LDR      r2,[pc,#52] ; [0x2000111c] = 0x20004010
        0x200010e6:    7812        .x      LDRB     r2,[r2,#0]
        0x200010e8:    2ae0        .*      CMP      r2,#0xe0
        0x200010ea:    d110        ..      BNE      0x2000110e ; I2C0_IRQHandler + 190
        0x200010ec:    4a0b        .J      LDR      r2,[pc,#44] ; [0x2000111c] = 0x20004010
        0x200010ee:    7852        Rx      LDRB     r2,[r2,#1]
        0x200010f0:    2a0e        .*      CMP      r2,#0xe
        0x200010f2:    d10c        ..      BNE      0x2000110e ; I2C0_IRQHandler + 190
        0x200010f4:    4a09        .J      LDR      r2,[pc,#36] ; [0x2000111c] = 0x20004010
        0x200010f6:    7892        .x      LDRB     r2,[r2,#2]
        0x200010f8:    00d2        ..      LSLS     r2,r2,#3
        0x200010fa:    4b08        .K      LDR      r3,[pc,#32] ; [0x2000111c] = 0x20004010
        0x200010fc:    78db        .x      LDRB     r3,[r3,#3]
        0x200010fe:    431a        .C      ORRS     r2,r2,r3
        0x20001100:    4b07        .K      LDR      r3,[pc,#28] ; [0x20001120] = 0x20004004
        0x20001102:    681b        .h      LDR      r3,[r3,#0]
        0x20001104:    429a        .B      CMP      r2,r3
        0x20001106:    d102        ..      BNE      0x2000110e ; I2C0_IRQHandler + 190
        0x20001108:    2201        ."      MOVS     r2,#1
        0x2000110a:    4b06        .K      LDR      r3,[pc,#24] ; [0x20001124] = 0x20004000
        0x2000110c:    701a        .p      STRB     r2,[r3,#0]
        0x2000110e:    bf00        ..      NOP      
        0x20001110:    4770        pG      BX       lr
    $d
        0x20001112:    0000        ..      DCW    0
        0x20001114:    40002040    @ .@    DCD    1073750080
        0x20001118:    200047e0    .G.     DCD    536889312
        0x2000111c:    20004010    .@.     DCD    536887312
        0x20001120:    20004004    .@.     DCD    536887300
        0x20001124:    20004000    .@.     DCD    536887296
    $t
    .text
    spi0_init
        0x20001128:    4834        4H      LDR      r0,[pc,#208] ; [0x200011fc] = 0x40003000
        0x2000112a:    6880        .h      LDR      r0,[r0,#8]
        0x2000112c:    0840        @.      LSRS     r0,r0,#1
        0x2000112e:    0040        @.      LSLS     r0,r0,#1
        0x20001130:    4932        2I      LDR      r1,[pc,#200] ; [0x200011fc] = 0x40003000
        0x20001132:    6088        .`      STR      r0,[r1,#8]
        0x20001134:    2007        .       MOVS     r0,#7
        0x20001136:    6008        .`      STR      r0,[r1,#0]
        0x20001138:    2000        .       MOVS     r0,#0
        0x2000113a:    6188        .a      STR      r0,[r1,#0x18]
        0x2000113c:    61c8        .a      STR      r0,[r1,#0x1c]
        0x2000113e:    2014        .       MOVS     r0,#0x14
        0x20001140:    62c8        .b      STR      r0,[r1,#0x2c]
        0x20001142:    4608        .F      MOV      r0,r1
        0x20001144:    6880        .h      LDR      r0,[r0,#8]
        0x20001146:    2101        .!      MOVS     r1,#1
        0x20001148:    4308        .C      ORRS     r0,r0,r1
        0x2000114a:    492c        ,I      LDR      r1,[pc,#176] ; [0x200011fc] = 0x40003000
        0x2000114c:    6088        .`      STR      r0,[r1,#8]
        0x2000114e:    4770        pG      BX       lr
    hs_spi0_send
        0x20001150:    492a        *I      LDR      r1,[pc,#168] ; [0x200011fc] = 0x40003000
        0x20001152:    3140        @1      ADDS     r1,r1,#0x40
        0x20001154:    6208        .b      STR      r0,[r1,#0x20]
        0x20001156:    bf00        ..      NOP      
        0x20001158:    4928        (I      LDR      r1,[pc,#160] ; [0x200011fc] = 0x40003000
        0x2000115a:    6b49        Ik      LDR      r1,[r1,#0x34]
        0x2000115c:    07c9        ..      LSLS     r1,r1,#31
        0x2000115e:    0fc9        ..      LSRS     r1,r1,#31
        0x20001160:    2900        .)      CMP      r1,#0
        0x20001162:    d0f9        ..      BEQ      0x20001158 ; hs_spi0_send + 8
        0x20001164:    4770        pG      BX       lr
    hs_spi0_send_str
        0x20001166:    b500        ..      PUSH     {lr}
        0x20001168:    4602        .F      MOV      r2,r0
        0x2000116a:    460b        .F      MOV      r3,r1
        0x2000116c:    e003        ..      B        0x20001176 ; hs_spi0_send_str + 16
        0x2000116e:    7810        .x      LDRB     r0,[r2,#0]
        0x20001170:    f7ffffee    ....    BL       hs_spi0_send ; 0x20001150
        0x20001174:    1c52        R.      ADDS     r2,r2,#1
        0x20001176:    4618        .F      MOV      r0,r3
        0x20001178:    1e5b        [.      SUBS     r3,r3,#1
        0x2000117a:    2800        .(      CMP      r0,#0
        0x2000117c:    d1f7        ..      BNE      0x2000116e ; hs_spi0_send_str + 8
        0x2000117e:    bd00        ..      POP      {pc}
    SPI0_IRQHandler
        0x20001180:    4a1e        .J      LDR      r2,[pc,#120] ; [0x200011fc] = 0x40003000
        0x20001182:    6b52        Rk      LDR      r2,[r2,#0x34]
        0x20001184:    2310        .#      MOVS     r3,#0x10
        0x20001186:    401a        .@      ANDS     r2,r2,r3
        0x20001188:    2a10        .*      CMP      r2,#0x10
        0x2000118a:    d12c        ,.      BNE      0x200011e6 ; SPI0_IRQHandler + 102
        0x2000118c:    4a1b        .J      LDR      r2,[pc,#108] ; [0x200011fc] = 0x40003000
        0x2000118e:    3240        @2      ADDS     r2,r2,#0x40
        0x20001190:    6a12        .j      LDR      r2,[r2,#0x20]
        0x20001192:    b2d0        ..      UXTB     r0,r2
        0x20001194:    4a1a        .J      LDR      r2,[pc,#104] ; [0x20001200] = 0x20004010
        0x20001196:    4b1b        .K      LDR      r3,[pc,#108] ; [0x20001204] = 0x20004004
        0x20001198:    681b        .h      LDR      r3,[r3,#0]
        0x2000119a:    54d0        .T      STRB     r0,[r2,r3]
        0x2000119c:    7812        .x      LDRB     r2,[r2,#0]
        0x2000119e:    2aff        .*      CMP      r2,#0xff
        0x200011a0:    d103        ..      BNE      0x200011aa ; SPI0_IRQHandler + 42
        0x200011a2:    2200        ."      MOVS     r2,#0
        0x200011a4:    4b17        .K      LDR      r3,[pc,#92] ; [0x20001204] = 0x20004004
        0x200011a6:    601a        .`      STR      r2,[r3,#0]
        0x200011a8:    e004        ..      B        0x200011b4 ; SPI0_IRQHandler + 52
        0x200011aa:    4a16        .J      LDR      r2,[pc,#88] ; [0x20001204] = 0x20004004
        0x200011ac:    6812        .h      LDR      r2,[r2,#0]
        0x200011ae:    1c52        R.      ADDS     r2,r2,#1
        0x200011b0:    4b14        .K      LDR      r3,[pc,#80] ; [0x20001204] = 0x20004004
        0x200011b2:    601a        .`      STR      r2,[r3,#0]
        0x200011b4:    4a12        .J      LDR      r2,[pc,#72] ; [0x20001200] = 0x20004010
        0x200011b6:    7812        .x      LDRB     r2,[r2,#0]
        0x200011b8:    2ae0        .*      CMP      r2,#0xe0
        0x200011ba:    d110        ..      BNE      0x200011de ; SPI0_IRQHandler + 94
        0x200011bc:    4a10        .J      LDR      r2,[pc,#64] ; [0x20001200] = 0x20004010
        0x200011be:    7852        Rx      LDRB     r2,[r2,#1]
        0x200011c0:    2a0e        .*      CMP      r2,#0xe
        0x200011c2:    d10c        ..      BNE      0x200011de ; SPI0_IRQHandler + 94
        0x200011c4:    4a0e        .J      LDR      r2,[pc,#56] ; [0x20001200] = 0x20004010
        0x200011c6:    7892        .x      LDRB     r2,[r2,#2]
        0x200011c8:    00d2        ..      LSLS     r2,r2,#3
        0x200011ca:    4b0d        .K      LDR      r3,[pc,#52] ; [0x20001200] = 0x20004010
        0x200011cc:    78db        .x      LDRB     r3,[r3,#3]
        0x200011ce:    431a        .C      ORRS     r2,r2,r3
        0x200011d0:    4b0c        .K      LDR      r3,[pc,#48] ; [0x20001204] = 0x20004004
        0x200011d2:    681b        .h      LDR      r3,[r3,#0]
        0x200011d4:    429a        .B      CMP      r2,r3
        0x200011d6:    d102        ..      BNE      0x200011de ; SPI0_IRQHandler + 94
        0x200011d8:    2201        ."      MOVS     r2,#1
        0x200011da:    4b0b        .K      LDR      r3,[pc,#44] ; [0x20001208] = 0x20004000
        0x200011dc:    701a        .p      STRB     r2,[r3,#0]
        0x200011de:    4a07        .J      LDR      r2,[pc,#28] ; [0x200011fc] = 0x40003000
        0x200011e0:    3240        @2      ADDS     r2,r2,#0x40
        0x200011e2:    6892        .h      LDR      r2,[r2,#8]
        0x200011e4:    b2d1        ..      UXTB     r1,r2
        0x200011e6:    4a05        .J      LDR      r2,[pc,#20] ; [0x200011fc] = 0x40003000
        0x200011e8:    6b52        Rk      LDR      r2,[r2,#0x34]
        0x200011ea:    07d2        ..      LSLS     r2,r2,#31
        0x200011ec:    0fd2        ..      LSRS     r2,r2,#31
        0x200011ee:    2a00        .*      CMP      r2,#0
        0x200011f0:    d003        ..      BEQ      0x200011fa ; SPI0_IRQHandler + 122
        0x200011f2:    4a02        .J      LDR      r2,[pc,#8] ; [0x200011fc] = 0x40003000
        0x200011f4:    3240        @2      ADDS     r2,r2,#0x40
        0x200011f6:    6892        .h      LDR      r2,[r2,#8]
        0x200011f8:    b2d1        ..      UXTB     r1,r2
        0x200011fa:    4770        pG      BX       lr
    $d
        0x200011fc:    40003000    .0.@    DCD    1073754112
        0x20001200:    20004010    .@.     DCD    536887312
        0x20001204:    20004004    .@.     DCD    536887300
        0x20001208:    20004000    .@.     DCD    536887296
    $t
    .text
    pll_init
        0x2000120c:    b510        ..      PUSH     {r4,lr}
        0x2000120e:    4811        .H      LDR      r0,[pc,#68] ; [0x20001254] = 0x40000040
        0x20001210:    6a40        @j      LDR      r0,[r0,#0x24]
        0x20001212:    0840        @.      LSRS     r0,r0,#1
        0x20001214:    0040        @.      LSLS     r0,r0,#1
        0x20001216:    490f        .I      LDR      r1,[pc,#60] ; [0x20001254] = 0x40000040
        0x20001218:    6248        Hb      STR      r0,[r1,#0x24]
        0x2000121a:    480f        .H      LDR      r0,[pc,#60] ; [0x20001258] = 0x11fc04
        0x2000121c:    6308        .c      STR      r0,[r1,#0x30]
        0x2000121e:    480f        .H      LDR      r0,[pc,#60] ; [0x2000125c] = 0x1418310c
        0x20001220:    62c8        .b      STR      r0,[r1,#0x2c]
        0x20001222:    4608        .F      MOV      r0,r1
        0x20001224:    6a80        .j      LDR      r0,[r0,#0x28]
        0x20001226:    2101        .!      MOVS     r1,#1
        0x20001228:    4308        .C      ORRS     r0,r0,r1
        0x2000122a:    490a        .I      LDR      r1,[pc,#40] ; [0x20001254] = 0x40000040
        0x2000122c:    6288        .b      STR      r0,[r1,#0x28]
        0x2000122e:    2064        d       MOVS     r0,#0x64
        0x20001230:    f7fffe70    ..p.    BL       delay ; 0x20000f14
        0x20001234:    2003        .       MOVS     r0,#3
        0x20001236:    4907        .I      LDR      r1,[pc,#28] ; [0x20001254] = 0x40000040
        0x20001238:    6288        .b      STR      r0,[r1,#0x28]
        0x2000123a:    207d        }       MOVS     r0,#0x7d
        0x2000123c:    00c0        ..      LSLS     r0,r0,#3
        0x2000123e:    f7fffe69    ..i.    BL       delay ; 0x20000f14
        0x20001242:    bf00        ..      NOP      
        0x20001244:    4803        .H      LDR      r0,[pc,#12] ; [0x20001254] = 0x40000040
        0x20001246:    6b40        @k      LDR      r0,[r0,#0x34]
        0x20001248:    2801        .(      CMP      r0,#1
        0x2000124a:    d1fb        ..      BNE      0x20001244 ; pll_init + 56
        0x2000124c:    2003        .       MOVS     r0,#3
        0x2000124e:    4901        .I      LDR      r1,[pc,#4] ; [0x20001254] = 0x40000040
        0x20001250:    6248        Hb      STR      r0,[r1,#0x24]
        0x20001252:    bd10        ..      POP      {r4,pc}
    $d
        0x20001254:    40000040    @..@    DCD    1073741888
        0x20001258:    0011fc04    ....    DCD    1178628
        0x2000125c:    1418310c    .1..    DCD    337129740
    $t
    .text
    i2c1_init
        0x20001260:    4848        HH      LDR      r0,[pc,#288] ; [0x20001384] = 0x40007040
        0x20001262:    6ac0        .j      LDR      r0,[r0,#0x2c]
        0x20001264:    0840        @.      LSRS     r0,r0,#1
        0x20001266:    0040        @.      LSLS     r0,r0,#1
        0x20001268:    4946        FI      LDR      r1,[pc,#280] ; [0x20001384] = 0x40007040
        0x2000126a:    62c8        .b      STR      r0,[r1,#0x2c]
        0x2000126c:    2045        E       MOVS     r0,#0x45
        0x2000126e:    4945        EI      LDR      r1,[pc,#276] ; [0x20001384] = 0x40007040
        0x20001270:    3940        @9      SUBS     r1,r1,#0x40
        0x20001272:    6008        .`      STR      r0,[r1,#0]
        0x20001274:    2010        .       MOVS     r0,#0x10
        0x20001276:    6048        H`      STR      r0,[r1,#4]
        0x20001278:    2023        #       MOVS     r0,#0x23
        0x2000127a:    6188        .a      STR      r0,[r1,#0x18]
        0x2000127c:    2015        .       MOVS     r0,#0x15
        0x2000127e:    6148        Ha      STR      r0,[r1,#0x14]
        0x20001280:    2000        .       MOVS     r0,#0
        0x20001282:    6308        .c      STR      r0,[r1,#0x30]
        0x20001284:    2004        .       MOVS     r0,#4
        0x20001286:    6388        .c      STR      r0,[r1,#0x38]
        0x20001288:    63c8        .c      STR      r0,[r1,#0x3c]
        0x2000128a:    483e        >H      LDR      r0,[pc,#248] ; [0x20001384] = 0x40007040
        0x2000128c:    6ac0        .j      LDR      r0,[r0,#0x2c]
        0x2000128e:    2101        .!      MOVS     r1,#1
        0x20001290:    4308        .C      ORRS     r0,r0,r1
        0x20001292:    493c        <I      LDR      r1,[pc,#240] ; [0x20001384] = 0x40007040
        0x20001294:    62c8        .b      STR      r0,[r1,#0x2c]
        0x20001296:    4770        pG      BX       lr
    i2c1_wr_data
        0x20001298:    b530        0.      PUSH     {r4,r5,lr}
        0x2000129a:    4602        .F      MOV      r2,r0
        0x2000129c:    17c4        ..      ASRS     r4,r0,#31
        0x2000129e:    0e24        $.      LSRS     r4,r4,#24
        0x200012a0:    18a4        ..      ADDS     r4,r4,r2
        0x200012a2:    0424        $.      LSLS     r4,r4,#16
        0x200012a4:    0e24        $.      LSRS     r4,r4,#24
        0x200012a6:    4d37        7M      LDR      r5,[pc,#220] ; [0x20001384] = 0x40007040
        0x200012a8:    3d40        @=      SUBS     r5,r5,#0x40
        0x200012aa:    612c        ,a      STR      r4,[r5,#0x10]
        0x200012ac:    17c4        ..      ASRS     r4,r0,#31
        0x200012ae:    0e24        $.      LSRS     r4,r4,#24
        0x200012b0:    18a4        ..      ADDS     r4,r4,r2
        0x200012b2:    1224        $.      ASRS     r4,r4,#8
        0x200012b4:    0224        $.      LSLS     r4,r4,#8
        0x200012b6:    1b04        ..      SUBS     r4,r0,r4
        0x200012b8:    b2e4        ..      UXTB     r4,r4
        0x200012ba:    612c        ,a      STR      r4,[r5,#0x10]
        0x200012bc:    460a        .F      MOV      r2,r1
        0x200012be:    17cc        ..      ASRS     r4,r1,#31
        0x200012c0:    0e24        $.      LSRS     r4,r4,#24
        0x200012c2:    18a4        ..      ADDS     r4,r4,r2
        0x200012c4:    0424        $.      LSLS     r4,r4,#16
        0x200012c6:    0e24        $.      LSRS     r4,r4,#24
        0x200012c8:    612c        ,a      STR      r4,[r5,#0x10]
        0x200012ca:    17cc        ..      ASRS     r4,r1,#31
        0x200012cc:    0e24        $.      LSRS     r4,r4,#24
        0x200012ce:    18a4        ..      ADDS     r4,r4,r2
        0x200012d0:    1224        $.      ASRS     r4,r4,#8
        0x200012d2:    0224        $.      LSLS     r4,r4,#8
        0x200012d4:    1b0c        ..      SUBS     r4,r1,r4
        0x200012d6:    b2e4        ..      UXTB     r4,r4
        0x200012d8:    156d        m.      ASRS     r5,r5,#21
        0x200012da:    432c        ,C      ORRS     r4,r4,r5
        0x200012dc:    4d29        )M      LDR      r5,[pc,#164] ; [0x20001384] = 0x40007040
        0x200012de:    3d40        @=      SUBS     r5,r5,#0x40
        0x200012e0:    612c        ,a      STR      r4,[r5,#0x10]
        0x200012e2:    2300        .#      MOVS     r3,#0
        0x200012e4:    e000        ..      B        0x200012e8 ; i2c1_wr_data + 80
        0x200012e6:    1c5b        [.      ADDS     r3,r3,#1
        0x200012e8:    4a27        'J      LDR      r2,[pc,#156] ; [0x20001388] = 0x1388
        0x200012ea:    4293        .B      CMP      r3,r2
        0x200012ec:    dbfb        ..      BLT      0x200012e6 ; i2c1_wr_data + 78
        0x200012ee:    bd30        0.      POP      {r4,r5,pc}
    i2c1_wr_8data
        0x200012f0:    b530        0.      PUSH     {r4,r5,lr}
        0x200012f2:    460a        .F      MOV      r2,r1
        0x200012f4:    4601        .F      MOV      r1,r0
        0x200012f6:    17c4        ..      ASRS     r4,r0,#31
        0x200012f8:    0e24        $.      LSRS     r4,r4,#24
        0x200012fa:    1864        d.      ADDS     r4,r4,r1
        0x200012fc:    0424        $.      LSLS     r4,r4,#16
        0x200012fe:    0e24        $.      LSRS     r4,r4,#24
        0x20001300:    4d20         M      LDR      r5,[pc,#128] ; [0x20001384] = 0x40007040
        0x20001302:    3d40        @=      SUBS     r5,r5,#0x40
        0x20001304:    612c        ,a      STR      r4,[r5,#0x10]
        0x20001306:    17c4        ..      ASRS     r4,r0,#31
        0x20001308:    0e24        $.      LSRS     r4,r4,#24
        0x2000130a:    1864        d.      ADDS     r4,r4,r1
        0x2000130c:    1224        $.      ASRS     r4,r4,#8
        0x2000130e:    0224        $.      LSLS     r4,r4,#8
        0x20001310:    1b04        ..      SUBS     r4,r0,r4
        0x20001312:    b2e4        ..      UXTB     r4,r4
        0x20001314:    612c        ,a      STR      r4,[r5,#0x10]
        0x20001316:    1569        i.      ASRS     r1,r5,#21
        0x20001318:    4311        .C      ORRS     r1,r1,r2
        0x2000131a:    462c        ,F      MOV      r4,r5
        0x2000131c:    6121        !a      STR      r1,[r4,#0x10]
        0x2000131e:    2300        .#      MOVS     r3,#0
        0x20001320:    e000        ..      B        0x20001324 ; i2c1_wr_8data + 52
        0x20001322:    1c5b        [.      ADDS     r3,r3,#1
        0x20001324:    4918        .I      LDR      r1,[pc,#96] ; [0x20001388] = 0x1388
        0x20001326:    428b        .B      CMP      r3,r1
        0x20001328:    dbfb        ..      BLT      0x20001322 ; i2c1_wr_8data + 50
        0x2000132a:    bd30        0.      POP      {r4,r5,pc}
    i2c1_rd_data
        0x2000132c:    b510        ..      PUSH     {r4,lr}
        0x2000132e:    4601        .F      MOV      r1,r0
        0x20001330:    2000        .       MOVS     r0,#0
        0x20001332:    460a        .F      MOV      r2,r1
        0x20001334:    17cb        ..      ASRS     r3,r1,#31
        0x20001336:    0e1b        ..      LSRS     r3,r3,#24
        0x20001338:    189b        ..      ADDS     r3,r3,r2
        0x2000133a:    041b        ..      LSLS     r3,r3,#16
        0x2000133c:    0e1b        ..      LSRS     r3,r3,#24
        0x2000133e:    4c11        .L      LDR      r4,[pc,#68] ; [0x20001384] = 0x40007040
        0x20001340:    3c40        @<      SUBS     r4,r4,#0x40
        0x20001342:    6123        #a      STR      r3,[r4,#0x10]
        0x20001344:    17cb        ..      ASRS     r3,r1,#31
        0x20001346:    0e1b        ..      LSRS     r3,r3,#24
        0x20001348:    189b        ..      ADDS     r3,r3,r2
        0x2000134a:    121b        ..      ASRS     r3,r3,#8
        0x2000134c:    021b        ..      LSLS     r3,r3,#8
        0x2000134e:    1acb        ..      SUBS     r3,r1,r3
        0x20001350:    b2db        ..      UXTB     r3,r3
        0x20001352:    6123        #a      STR      r3,[r4,#0x10]
        0x20001354:    4622        "F      MOV      r2,r4
        0x20001356:    6912        .i      LDR      r2,[r2,#0x10]
        0x20001358:    15a3        ..      ASRS     r3,r4,#22
        0x2000135a:    431a        .C      ORRS     r2,r2,r3
        0x2000135c:    4623        #F      MOV      r3,r4
        0x2000135e:    611a        .a      STR      r2,[r3,#0x10]
        0x20001360:    461a        .F      MOV      r2,r3
        0x20001362:    6912        .i      LDR      r2,[r2,#0x10]
        0x20001364:    4302        .C      ORRS     r2,r2,r0
        0x20001366:    b290        ..      UXTH     r0,r2
        0x20001368:    461a        .F      MOV      r2,r3
        0x2000136a:    6912        .i      LDR      r2,[r2,#0x10]
        0x2000136c:    2303        .#      MOVS     r3,#3
        0x2000136e:    021b        ..      LSLS     r3,r3,#8
        0x20001370:    431a        .C      ORRS     r2,r2,r3
        0x20001372:    4623        #F      MOV      r3,r4
        0x20001374:    611a        .a      STR      r2,[r3,#0x10]
        0x20001376:    461a        .F      MOV      r2,r3
        0x20001378:    6912        .i      LDR      r2,[r2,#0x10]
        0x2000137a:    0212        ..      LSLS     r2,r2,#8
        0x2000137c:    4302        .C      ORRS     r2,r2,r0
        0x2000137e:    b290        ..      UXTH     r0,r2
        0x20001380:    bd10        ..      POP      {r4,pc}
    $d
        0x20001382:    0000        ..      DCW    0
        0x20001384:    40007040    @p.@    DCD    1073770560
        0x20001388:    00001388    ....    DCD    5000
    $t
    .text
    main
        0x2000138c:    b510        ..      PUSH     {r4,lr}
        0x2000138e:    4847        GH      LDR      r0,[pc,#284] ; [0x200014ac] = 0xfff
        0x20001390:    4947        GI      LDR      r1,[pc,#284] ; [0x200014b0] = 0xe000e180
        0x20001392:    6008        .`      STR      r0,[r1,#0]
        0x20001394:    4947        GI      LDR      r1,[pc,#284] ; [0x200014b4] = 0xe000e280
        0x20001396:    6008        .`      STR      r0,[r1,#0]
        0x20001398:    4945        EI      LDR      r1,[pc,#276] ; [0x200014b0] = 0xe000e180
        0x2000139a:    3980        .9      SUBS     r1,r1,#0x80
        0x2000139c:    6008        .`      STR      r0,[r1,#0]
        0x2000139e:    4846        FH      LDR      r0,[pc,#280] ; [0x200014b8] = 0x77686873
        0x200013a0:    0589        ..      LSLS     r1,r1,#22
        0x200013a2:    6208        .b      STR      r0,[r1,#0x20]
        0x200013a4:    4608        .F      MOV      r0,r1
        0x200013a6:    6a80        .j      LDR      r0,[r0,#0x28]
        0x200013a8:    2101        .!      MOVS     r1,#1
        0x200013aa:    4308        .C      ORRS     r0,r0,r1
        0x200013ac:    0789        ..      LSLS     r1,r1,#30
        0x200013ae:    6288        .b      STR      r0,[r1,#0x28]
        0x200013b0:    483f        ?H      LDR      r0,[pc,#252] ; [0x200014b0] = 0xe000e180
        0x200013b2:    3880        .8      SUBS     r0,r0,#0x80
        0x200013b4:    6800        .h      LDR      r0,[r0,#0]
        0x200013b6:    21ff        .!      MOVS     r1,#0xff
        0x200013b8:    4308        .C      ORRS     r0,r0,r1
        0x200013ba:    493d        =I      LDR      r1,[pc,#244] ; [0x200014b0] = 0xe000e180
        0x200013bc:    3980        .9      SUBS     r1,r1,#0x80
        0x200013be:    6008        .`      STR      r0,[r1,#0]
        0x200013c0:    483e        >H      LDR      r0,[pc,#248] ; [0x200014bc] = 0x40000040
        0x200013c2:    6a40        @j      LDR      r0,[r0,#0x24]
        0x200013c4:    2101        .!      MOVS     r1,#1
        0x200013c6:    4308        .C      ORRS     r0,r0,r1
        0x200013c8:    493c        <I      LDR      r1,[pc,#240] ; [0x200014bc] = 0x40000040
        0x200013ca:    6248        Hb      STR      r0,[r1,#0x24]
        0x200013cc:    f7ffff1e    ....    BL       pll_init ; 0x2000120c
        0x200013d0:    bf00        ..      NOP      
        0x200013d2:    483b        ;H      LDR      r0,[pc,#236] ; [0x200014c0] = 0x40009300
        0x200013d4:    6840        @h      LDR      r0,[r0,#4]
        0x200013d6:    2881        .(      CMP      r0,#0x81
        0x200013d8:    d1fb        ..      BNE      0x200013d2 ; main + 70
        0x200013da:    4839        9H      LDR      r0,[pc,#228] ; [0x200014c0] = 0x40009300
        0x200013dc:    6800        .h      LDR      r0,[r0,#0]
        0x200013de:    2101        .!      MOVS     r1,#1
        0x200013e0:    0409        ..      LSLS     r1,r1,#16
        0x200013e2:    4308        .C      ORRS     r0,r0,r1
        0x200013e4:    4936        6I      LDR      r1,[pc,#216] ; [0x200014c0] = 0x40009300
        0x200013e6:    6008        .`      STR      r0,[r1,#0]
        0x200013e8:    f000f878    ..x.    BL       DspConfig ; 0x200014dc
        0x200013ec:    4830        0H      LDR      r0,[pc,#192] ; [0x200014b0] = 0xe000e180
        0x200013ee:    3880        .8      SUBS     r0,r0,#0x80
        0x200013f0:    6800        .h      LDR      r0,[r0,#0]
        0x200013f2:    21ff        .!      MOVS     r1,#0xff
        0x200013f4:    4308        .C      ORRS     r0,r0,r1
        0x200013f6:    492e        .I      LDR      r1,[pc,#184] ; [0x200014b0] = 0xe000e180
        0x200013f8:    3980        .9      SUBS     r1,r1,#0x80
        0x200013fa:    6008        .`      STR      r0,[r1,#0]
        0x200013fc:    4831        1H      LDR      r0,[pc,#196] ; [0x200014c4] = 0xe000e400
        0x200013fe:    6800        .h      LDR      r0,[r0,#0]
        0x20001400:    2101        .!      MOVS     r1,#1
        0x20001402:    0389        ..      LSLS     r1,r1,#14
        0x20001404:    4308        .C      ORRS     r0,r0,r1
        0x20001406:    492f        /I      LDR      r1,[pc,#188] ; [0x200014c4] = 0xe000e400
        0x20001408:    6008        .`      STR      r0,[r1,#0]
        0x2000140a:    482c        ,H      LDR      r0,[pc,#176] ; [0x200014bc] = 0x40000040
        0x2000140c:    6980        .i      LDR      r0,[r0,#0x18]
        0x2000140e:    2101        .!      MOVS     r1,#1
        0x20001410:    4308        .C      ORRS     r0,r0,r1
        0x20001412:    492a        *I      LDR      r1,[pc,#168] ; [0x200014bc] = 0x40000040
        0x20001414:    6188        .a      STR      r0,[r1,#0x18]
        0x20001416:    4608        .F      MOV      r0,r1
        0x20001418:    69c0        .i      LDR      r0,[r0,#0x1c]
        0x2000141a:    2101        .!      MOVS     r1,#1
        0x2000141c:    4308        .C      ORRS     r0,r0,r1
        0x2000141e:    4927        'I      LDR      r1,[pc,#156] ; [0x200014bc] = 0x40000040
        0x20001420:    61c8        .a      STR      r0,[r1,#0x1c]
        0x20001422:    4825        %H      LDR      r0,[pc,#148] ; [0x200014b8] = 0x77686873
        0x20001424:    4926        &I      LDR      r1,[pc,#152] ; [0x200014c0] = 0x40009300
        0x20001426:    6248        Hb      STR      r0,[r1,#0x24]
        0x20001428:    4827        'H      LDR      r0,[pc,#156] ; [0x200014c8] = 0x3d400c8
        0x2000142a:    4928        (I      LDR      r1,[pc,#160] ; [0x200014cc] = 0x40009180
        0x2000142c:    6248        Hb      STR      r0,[r1,#0x24]
        0x2000142e:    2000        .       MOVS     r0,#0
        0x20001430:    4923        #I      LDR      r1,[pc,#140] ; [0x200014c0] = 0x40009300
        0x20001432:    6248        Hb      STR      r0,[r1,#0x24]
        0x20001434:    4820         H      LDR      r0,[pc,#128] ; [0x200014b8] = 0x77686873
        0x20001436:    62c8        .b      STR      r0,[r1,#0x2c]
        0x20001438:    2000        .       MOVS     r0,#0
        0x2000143a:    43c0        .C      MVNS     r0,r0
        0x2000143c:    4920         I      LDR      r1,[pc,#128] ; [0x200014c0] = 0x40009300
        0x2000143e:    3980        .9      SUBS     r1,r1,#0x80
        0x20001440:    62c8        .b      STR      r0,[r1,#0x2c]
        0x20001442:    2000        .       MOVS     r0,#0
        0x20001444:    491e        .I      LDR      r1,[pc,#120] ; [0x200014c0] = 0x40009300
        0x20001446:    62c8        .b      STR      r0,[r1,#0x2c]
        0x20001448:    4821        !H      LDR      r0,[pc,#132] ; [0x200014d0] = 0x4380780
        0x2000144a:    4920         I      LDR      r1,[pc,#128] ; [0x200014cc] = 0x40009180
        0x2000144c:    3980        .9      SUBS     r1,r1,#0x80
        0x2000144e:    62c8        .b      STR      r0,[r1,#0x2c]
        0x20001450:    4820         H      LDR      r0,[pc,#128] ; [0x200014d4] = 0xb40140
        0x20001452:    6308        .c      STR      r0,[r1,#0x30]
        0x20001454:    4819        .H      LDR      r0,[pc,#100] ; [0x200014bc] = 0x40000040
        0x20001456:    6a00        .j      LDR      r0,[r0,#0x20]
        0x20001458:    2102        .!      MOVS     r1,#2
        0x2000145a:    4308        .C      ORRS     r0,r0,r1
        0x2000145c:    4917        .I      LDR      r1,[pc,#92] ; [0x200014bc] = 0x40000040
        0x2000145e:    6208        .b      STR      r0,[r1,#0x20]
        0x20001460:    2003        .       MOVS     r0,#3
        0x20001462:    491a        .I      LDR      r1,[pc,#104] ; [0x200014cc] = 0x40009180
        0x20001464:    3940        @9      SUBS     r1,r1,#0x40
        0x20001466:    6148        Ha      STR      r0,[r1,#0x14]
        0x20001468:    f7fffefa    ....    BL       i2c1_init ; 0x20001260
        0x2000146c:    2000        .       MOVS     r0,#0
        0x2000146e:    491a        .I      LDR      r1,[pc,#104] ; [0x200014d8] = 0x20015000
        0x20001470:    6008        .`      STR      r0,[r1,#0]
        0x20001472:    f7feff41    ..A.    BL       ar0237_init ; 0x200002f8
        0x20001476:    4811        .H      LDR      r0,[pc,#68] ; [0x200014bc] = 0x40000040
        0x20001478:    6840        @h      LDR      r0,[r0,#4]
        0x2000147a:    2101        .!      MOVS     r1,#1
        0x2000147c:    4308        .C      ORRS     r0,r0,r1
        0x2000147e:    490f        .I      LDR      r1,[pc,#60] ; [0x200014bc] = 0x40000040
        0x20001480:    6048        H`      STR      r0,[r1,#4]
        0x20001482:    0608        ..      LSLS     r0,r1,#24
        0x20001484:    6bc0        .k      LDR      r0,[r0,#0x3c]
        0x20001486:    0840        @.      LSRS     r0,r0,#1
        0x20001488:    0040        @.      LSLS     r0,r0,#1
        0x2000148a:    0609        ..      LSLS     r1,r1,#24
        0x2000148c:    63c8        .c      STR      r0,[r1,#0x3c]
        0x2000148e:    480b        .H      LDR      r0,[pc,#44] ; [0x200014bc] = 0x40000040
        0x20001490:    6880        .h      LDR      r0,[r0,#8]
        0x20001492:    2101        .!      MOVS     r1,#1
        0x20001494:    4308        .C      ORRS     r0,r0,r1
        0x20001496:    4909        .I      LDR      r1,[pc,#36] ; [0x200014bc] = 0x40000040
        0x20001498:    6088        .`      STR      r0,[r1,#8]
        0x2000149a:    2008        .       MOVS     r0,#8
        0x2000149c:    f7fefe96    ....    BL       hs_uart_init ; 0x200001cc
        0x200014a0:    f7fffd8c    ....    BL       i2c0_init ; 0x20000fbc
        0x200014a4:    f000fbb9    ....    BL       hs_protocol ; 0x20001c1a
        0x200014a8:    2000        .       MOVS     r0,#0
        0x200014aa:    bd10        ..      POP      {r4,pc}
    $d
        0x200014ac:    00000fff    ....    DCD    4095
        0x200014b0:    e000e180    ....    DCD    3758154112
        0x200014b4:    e000e280    ....    DCD    3758154368
        0x200014b8:    77686873    shhw    DCD    2003331187
        0x200014bc:    40000040    @..@    DCD    1073741888
        0x200014c0:    40009300    ...@    DCD    1073779456
        0x200014c4:    e000e400    ....    DCD    3758154752
        0x200014c8:    03d400c8    ....    DCD    64225480
        0x200014cc:    40009180    ...@    DCD    1073779072
        0x200014d0:    04380780    ..8.    DCD    70780800
        0x200014d4:    00b40140    @...    DCD    11796800
        0x200014d8:    20015000    .P.     DCD    536956928
    $t
    .text
    DspConfig
        0x200014dc:    48fa        .H      LDR      r0,[pc,#1000] ; [0x200018c8] = 0x77686873
        0x200014de:    49fb        .I      LDR      r1,[pc,#1004] ; [0x200018cc] = 0x40009300
        0x200014e0:    6208        .b      STR      r0,[r1,#0x20]
        0x200014e2:    6248        Hb      STR      r0,[r1,#0x24]
        0x200014e4:    6288        .b      STR      r0,[r1,#0x28]
        0x200014e6:    62c8        .b      STR      r0,[r1,#0x2c]
        0x200014e8:    6308        .c      STR      r0,[r1,#0x30]
        0x200014ea:    48f9        .H      LDR      r0,[pc,#996] ; [0x200018d0] = 0x98badcfe
        0x200014ec:    49f9        .I      LDR      r1,[pc,#996] ; [0x200018d4] = 0x40009100
        0x200014ee:    6008        .`      STR      r0,[r1,#0]
        0x200014f0:    48f9        .H      LDR      r0,[pc,#996] ; [0x200018d8] = 0x10325476
        0x200014f2:    6048        H`      STR      r0,[r1,#4]
        0x200014f4:    48f6        .H      LDR      r0,[pc,#984] ; [0x200018d0] = 0x98badcfe
        0x200014f6:    6088        .`      STR      r0,[r1,#8]
        0x200014f8:    48f7        .H      LDR      r0,[pc,#988] ; [0x200018d8] = 0x10325476
        0x200014fa:    60c8        .`      STR      r0,[r1,#0xc]
        0x200014fc:    48f4        .H      LDR      r0,[pc,#976] ; [0x200018d0] = 0x98badcfe
        0x200014fe:    6108        .a      STR      r0,[r1,#0x10]
        0x20001500:    48f5        .H      LDR      r0,[pc,#980] ; [0x200018d8] = 0x10325476
        0x20001502:    6148        Ha      STR      r0,[r1,#0x14]
        0x20001504:    48f2        .H      LDR      r0,[pc,#968] ; [0x200018d0] = 0x98badcfe
        0x20001506:    6188        .a      STR      r0,[r1,#0x18]
        0x20001508:    48f3        .H      LDR      r0,[pc,#972] ; [0x200018d8] = 0x10325476
        0x2000150a:    61c8        .a      STR      r0,[r1,#0x1c]
        0x2000150c:    2000        .       MOVS     r0,#0
        0x2000150e:    6208        .b      STR      r0,[r1,#0x20]
        0x20001510:    1408        ..      ASRS     r0,r1,#16
        0x20001512:    6248        Hb      STR      r0,[r1,#0x24]
        0x20001514:    207f        .       MOVS     r0,#0x7f
        0x20001516:    6288        .b      STR      r0,[r1,#0x28]
        0x20001518:    48f0        .H      LDR      r0,[pc,#960] ; [0x200018dc] = 0x4380780
        0x2000151a:    62c8        .b      STR      r0,[r1,#0x2c]
        0x2000151c:    6308        .c      STR      r0,[r1,#0x30]
        0x2000151e:    48f0        .H      LDR      r0,[pc,#960] ; [0x200018e0] = 0x6800a8
        0x20001520:    6348        Hc      STR      r0,[r1,#0x34]
        0x20001522:    48f0        .H      LDR      r0,[pc,#960] ; [0x200018e4] = 0x3a80368
        0x20001524:    6388        .c      STR      r0,[r1,#0x38]
        0x20001526:    48f0        .H      LDR      r0,[pc,#960] ; [0x200018e8] = 0x42800a8
        0x20001528:    63c8        .c      STR      r0,[r1,#0x3c]
        0x2000152a:    48f0        .H      LDR      r0,[pc,#960] ; [0x200018ec] = 0x3a80728
        0x2000152c:    49e9        .I      LDR      r1,[pc,#932] ; [0x200018d4] = 0x40009100
        0x2000152e:    3140        @1      ADDS     r1,r1,#0x40
        0x20001530:    6008        .`      STR      r0,[r1,#0]
        0x20001532:    48eb        .H      LDR      r0,[pc,#940] ; [0x200018e0] = 0x6800a8
        0x20001534:    6048        H`      STR      r0,[r1,#4]
        0x20001536:    48eb        .H      LDR      r0,[pc,#940] ; [0x200018e4] = 0x3a80368
        0x20001538:    6088        .`      STR      r0,[r1,#8]
        0x2000153a:    48eb        .H      LDR      r0,[pc,#940] ; [0x200018e8] = 0x42800a8
        0x2000153c:    60c8        .`      STR      r0,[r1,#0xc]
        0x2000153e:    48eb        .H      LDR      r0,[pc,#940] ; [0x200018ec] = 0x3a80728
        0x20001540:    6108        .a      STR      r0,[r1,#0x10]
        0x20001542:    2003        .       MOVS     r0,#3
        0x20001544:    6148        Ha      STR      r0,[r1,#0x14]
        0x20001546:    2000        .       MOVS     r0,#0
        0x20001548:    6188        .a      STR      r0,[r1,#0x18]
        0x2000154a:    48e9        .H      LDR      r0,[pc,#932] ; [0x200018f0] = 0x800080
        0x2000154c:    61c8        .a      STR      r0,[r1,#0x1c]
        0x2000154e:    2000        .       MOVS     r0,#0
        0x20001550:    6208        .b      STR      r0,[r1,#0x20]
        0x20001552:    48e8        .H      LDR      r0,[pc,#928] ; [0x200018f4] = 0x8c10
        0x20001554:    6248        Hb      STR      r0,[r1,#0x24]
        0x20001556:    20ff        .       MOVS     r0,#0xff
        0x20001558:    0200        ..      LSLS     r0,r0,#8
        0x2000155a:    6288        .b      STR      r0,[r1,#0x28]
        0x2000155c:    48e6        .H      LDR      r0,[pc,#920] ; [0x200018f8] = 0x47f9c
        0x2000155e:    62c8        .b      STR      r0,[r1,#0x2c]
        0x20001560:    2010        .       MOVS     r0,#0x10
        0x20001562:    6308        .c      STR      r0,[r1,#0x30]
        0x20001564:    2003        .       MOVS     r0,#3
        0x20001566:    0400        ..      LSLS     r0,r0,#16
        0x20001568:    6348        Hc      STR      r0,[r1,#0x34]
        0x2000156a:    2002        .       MOVS     r0,#2
        0x2000156c:    6388        .c      STR      r0,[r1,#0x38]
        0x2000156e:    2003        .       MOVS     r0,#3
        0x20001570:    0240        @.      LSLS     r0,r0,#9
        0x20001572:    63c8        .c      STR      r0,[r1,#0x3c]
        0x20001574:    2004        .       MOVS     r0,#4
        0x20001576:    49d7        .I      LDR      r1,[pc,#860] ; [0x200018d4] = 0x40009100
        0x20001578:    3180        .1      ADDS     r1,r1,#0x80
        0x2000157a:    6008        .`      STR      r0,[r1,#0]
        0x2000157c:    2000        .       MOVS     r0,#0
        0x2000157e:    6048        H`      STR      r0,[r1,#4]
        0x20001580:    6088        .`      STR      r0,[r1,#8]
        0x20001582:    60c8        .`      STR      r0,[r1,#0xc]
        0x20001584:    48dd        .H      LDR      r0,[pc,#884] ; [0x200018fc] = 0x5c0a
        0x20001586:    6108        .a      STR      r0,[r1,#0x10]
        0x20001588:    48dd        .H      LDR      r0,[pc,#884] ; [0x20001900] = 0x7f4b
        0x2000158a:    6148        Ha      STR      r0,[r1,#0x14]
        0x2000158c:    2018        .       MOVS     r0,#0x18
        0x2000158e:    6188        .a      STR      r0,[r1,#0x18]
        0x20001590:    20c0        .       MOVS     r0,#0xc0
        0x20001592:    61c8        .a      STR      r0,[r1,#0x1c]
        0x20001594:    203f        ?       MOVS     r0,#0x3f
        0x20001596:    0100        ..      LSLS     r0,r0,#4
        0x20001598:    6208        .b      STR      r0,[r1,#0x20]
        0x2000159a:    48da        .H      LDR      r0,[pc,#872] ; [0x20001904] = 0x3d40258
        0x2000159c:    6248        Hb      STR      r0,[r1,#0x24]
        0x2000159e:    2002        .       MOVS     r0,#2
        0x200015a0:    6288        .b      STR      r0,[r1,#0x28]
        0x200015a2:    48d9        .H      LDR      r0,[pc,#868] ; [0x20001908] = 0xa04
        0x200015a4:    62c8        .b      STR      r0,[r1,#0x2c]
        0x200015a6:    48d9        .H      LDR      r0,[pc,#868] ; [0x2000190c] = 0x14000200
        0x200015a8:    6308        .c      STR      r0,[r1,#0x30]
        0x200015aa:    2019        .       MOVS     r0,#0x19
        0x200015ac:    6348        Hc      STR      r0,[r1,#0x34]
        0x200015ae:    48d8        .H      LDR      r0,[pc,#864] ; [0x20001910] = 0x1e03
        0x200015b0:    6388        .c      STR      r0,[r1,#0x38]
        0x200015b2:    48d8        .H      LDR      r0,[pc,#864] ; [0x20001914] = 0x14000100
        0x200015b4:    63c8        .c      STR      r0,[r1,#0x3c]
        0x200015b6:    204b        K       MOVS     r0,#0x4b
        0x200015b8:    49c6        .I      LDR      r1,[pc,#792] ; [0x200018d4] = 0x40009100
        0x200015ba:    31c0        .1      ADDS     r1,r1,#0xc0
        0x200015bc:    6008        .`      STR      r0,[r1,#0]
        0x200015be:    48d6        .H      LDR      r0,[pc,#856] ; [0x20001918] = 0x5e08
        0x200015c0:    6048        H`      STR      r0,[r1,#4]
        0x200015c2:    48d6        .H      LDR      r0,[pc,#856] ; [0x2000191c] = 0x488742
        0x200015c4:    6088        .`      STR      r0,[r1,#8]
        0x200015c6:    2003        .       MOVS     r0,#3
        0x200015c8:    60c8        .`      STR      r0,[r1,#0xc]
        0x200015ca:    48d5        .H      LDR      r0,[pc,#852] ; [0x20001920] = 0xf00010
        0x200015cc:    6108        .a      STR      r0,[r1,#0x10]
        0x200015ce:    48d5        .H      LDR      r0,[pc,#852] ; [0x20001924] = 0xc00008
        0x200015d0:    6148        Ha      STR      r0,[r1,#0x14]
        0x200015d2:    48d5        .H      LDR      r0,[pc,#852] ; [0x20001928] = 0x804
        0x200015d4:    6188        .a      STR      r0,[r1,#0x18]
        0x200015d6:    48d5        .H      LDR      r0,[pc,#852] ; [0x2000192c] = 0x10100
        0x200015d8:    61c8        .a      STR      r0,[r1,#0x1c]
        0x200015da:    48d5        .H      LDR      r0,[pc,#852] ; [0x20001930] = 0x4e020
        0x200015dc:    6208        .b      STR      r0,[r1,#0x20]
        0x200015de:    48c6        .H      LDR      r0,[pc,#792] ; [0x200018f8] = 0x47f9c
        0x200015e0:    306c        l0      ADDS     r0,r0,#0x6c
        0x200015e2:    6248        Hb      STR      r0,[r1,#0x24]
        0x200015e4:    48d3        .H      LDR      r0,[pc,#844] ; [0x20001934] = 0x3304
        0x200015e6:    6288        .b      STR      r0,[r1,#0x28]
        0x200015e8:    2061        a       MOVS     r0,#0x61
        0x200015ea:    0100        ..      LSLS     r0,r0,#4
        0x200015ec:    62c8        .b      STR      r0,[r1,#0x2c]
        0x200015ee:    48d2        .H      LDR      r0,[pc,#840] ; [0x20001938] = 0x404
        0x200015f0:    6308        .c      STR      r0,[r1,#0x30]
        0x200015f2:    2061        a       MOVS     r0,#0x61
        0x200015f4:    00c0        ..      LSLS     r0,r0,#3
        0x200015f6:    6348        Hc      STR      r0,[r1,#0x34]
        0x200015f8:    48d0        .H      LDR      r0,[pc,#832] ; [0x2000193c] = 0x50c0c
        0x200015fa:    6388        .c      STR      r0,[r1,#0x38]
        0x200015fc:    20c3        .       MOVS     r0,#0xc3
        0x200015fe:    00c0        ..      LSLS     r0,r0,#3
        0x20001600:    63c8        .c      STR      r0,[r1,#0x3c]
        0x20001602:    48cd        .H      LDR      r0,[pc,#820] ; [0x20001938] = 0x404
        0x20001604:    1c80        ..      ADDS     r0,r0,#2
        0x20001606:    49ce        .I      LDR      r1,[pc,#824] ; [0x20001940] = 0x40009200
        0x20001608:    6008        .`      STR      r0,[r1,#0]
        0x2000160a:    6048        H`      STR      r0,[r1,#4]
        0x2000160c:    48cb        .H      LDR      r0,[pc,#812] ; [0x2000193c] = 0x50c0c
        0x2000160e:    6088        .`      STR      r0,[r1,#8]
        0x20001610:    48cc        .H      LDR      r0,[pc,#816] ; [0x20001944] = 0xf0080a2d
        0x20001612:    60c8        .`      STR      r0,[r1,#0xc]
        0x20001614:    48cc        .H      LDR      r0,[pc,#816] ; [0x20001948] = 0x83004
        0x20001616:    6108        .a      STR      r0,[r1,#0x10]
        0x20001618:    2002        .       MOVS     r0,#2
        0x2000161a:    6148        Ha      STR      r0,[r1,#0x14]
        0x2000161c:    48cb        .H      LDR      r0,[pc,#812] ; [0x2000194c] = 0x100c
        0x2000161e:    6188        .a      STR      r0,[r1,#0x18]
        0x20001620:    48cb        .H      LDR      r0,[pc,#812] ; [0x20001950] = 0x303
        0x20001622:    61c8        .a      STR      r0,[r1,#0x1c]
        0x20001624:    48cb        .H      LDR      r0,[pc,#812] ; [0x20001954] = 0x2f5c28f6
        0x20001626:    6208        .b      STR      r0,[r1,#0x20]
        0x20001628:    48cb        .H      LDR      r0,[pc,#812] ; [0x20001958] = 0x35c2
        0x2000162a:    6248        Hb      STR      r0,[r1,#0x24]
        0x2000162c:    2003        .       MOVS     r0,#3
        0x2000162e:    0340        @.      LSLS     r0,r0,#13
        0x20001630:    6288        .b      STR      r0,[r1,#0x28]
        0x20001632:    48ca        .H      LDR      r0,[pc,#808] ; [0x2000195c] = 0x38805d64
        0x20001634:    62c8        .b      STR      r0,[r1,#0x2c]
        0x20001636:    48ca        .H      LDR      r0,[pc,#808] ; [0x20001960] = 0x199a1333
        0x20001638:    6308        .c      STR      r0,[r1,#0x30]
        0x2000163a:    48ca        .H      LDR      r0,[pc,#808] ; [0x20001964] = 0x2666
        0x2000163c:    6348        Hc      STR      r0,[r1,#0x34]
        0x2000163e:    2080        .       MOVS     r0,#0x80
        0x20001640:    6388        .c      STR      r0,[r1,#0x38]
        0x20001642:    48c9        .H      LDR      r0,[pc,#804] ; [0x20001968] = 0xcd0020
        0x20001644:    63c8        .c      STR      r0,[r1,#0x3c]
        0x20001646:    48c9        .H      LDR      r0,[pc,#804] ; [0x2000196c] = 0xb30033
        0x20001648:    49bd        .I      LDR      r1,[pc,#756] ; [0x20001940] = 0x40009200
        0x2000164a:    3140        @1      ADDS     r1,r1,#0x40
        0x2000164c:    6008        .`      STR      r0,[r1,#0]
        0x2000164e:    48c8        .H      LDR      r0,[pc,#800] ; [0x20001970] = 0x8d004d
        0x20001650:    6048        H`      STR      r0,[r1,#4]
        0x20001652:    48b6        .H      LDR      r0,[pc,#728] ; [0x2000192c] = 0x10100
        0x20001654:    38ff        .8      SUBS     r0,r0,#0xff
        0x20001656:    6088        .`      STR      r0,[r1,#8]
        0x20001658:    60c8        .`      STR      r0,[r1,#0xc]
        0x2000165a:    20dc        .       MOVS     r0,#0xdc
        0x2000165c:    6108        .a      STR      r0,[r1,#0x10]
        0x2000165e:    48b2        .H      LDR      r0,[pc,#712] ; [0x20001928] = 0x804
        0x20001660:    1c40        @.      ADDS     r0,r0,#1
        0x20001662:    6148        Ha      STR      r0,[r1,#0x14]
        0x20001664:    48c3        .H      LDR      r0,[pc,#780] ; [0x20001974] = 0x18e824dc
        0x20001666:    6188        .a      STR      r0,[r1,#0x18]
        0x20001668:    61c8        .a      STR      r0,[r1,#0x1c]
        0x2000166a:    48c3        .H      LDR      r0,[pc,#780] ; [0x20001978] = 0x21010
        0x2000166c:    6208        .b      STR      r0,[r1,#0x20]
        0x2000166e:    48c3        .H      LDR      r0,[pc,#780] ; [0x2000197c] = 0xc80014
        0x20001670:    6248        Hb      STR      r0,[r1,#0x24]
        0x20001672:    6288        .b      STR      r0,[r1,#0x28]
        0x20001674:    48b5        .H      LDR      r0,[pc,#724] ; [0x2000194c] = 0x100c
        0x20001676:    306c        l0      ADDS     r0,r0,#0x6c
        0x20001678:    62c8        .b      STR      r0,[r1,#0x2c]
        0x2000167a:    48c1        .H      LDR      r0,[pc,#772] ; [0x20001980] = 0x156a
        0x2000167c:    6308        .c      STR      r0,[r1,#0x30]
        0x2000167e:    48c1        .H      LDR      r0,[pc,#772] ; [0x20001984] = 0xc010
        0x20001680:    6348        Hc      STR      r0,[r1,#0x34]
        0x20001682:    2000        .       MOVS     r0,#0
        0x20001684:    6388        .c      STR      r0,[r1,#0x38]
        0x20001686:    63c8        .c      STR      r0,[r1,#0x3c]
        0x20001688:    2040        @       MOVS     r0,#0x40
        0x2000168a:    4990        .I      LDR      r1,[pc,#576] ; [0x200018cc] = 0x40009300
        0x2000168c:    3980        .9      SUBS     r1,r1,#0x80
        0x2000168e:    6008        .`      STR      r0,[r1,#0]
        0x20001690:    48bd        .H      LDR      r0,[pc,#756] ; [0x20001988] = 0x199a
        0x20001692:    6048        H`      STR      r0,[r1,#4]
        0x20001694:    48bd        .H      LDR      r0,[pc,#756] ; [0x2000198c] = 0x1852
        0x20001696:    6088        .`      STR      r0,[r1,#8]
        0x20001698:    2000        .       MOVS     r0,#0
        0x2000169a:    60c8        .`      STR      r0,[r1,#0xc]
        0x2000169c:    6108        .a      STR      r0,[r1,#0x10]
        0x2000169e:    6148        Ha      STR      r0,[r1,#0x14]
        0x200016a0:    6188        .a      STR      r0,[r1,#0x18]
        0x200016a2:    61c8        .a      STR      r0,[r1,#0x1c]
        0x200016a4:    6208        .b      STR      r0,[r1,#0x20]
        0x200016a6:    6248        Hb      STR      r0,[r1,#0x24]
        0x200016a8:    48b9        .H      LDR      r0,[pc,#740] ; [0x20001990] = 0x3b9aca00
        0x200016aa:    6288        .b      STR      r0,[r1,#0x28]
        0x200016ac:    48b9        .H      LDR      r0,[pc,#740] ; [0x20001994] = 0x2625a00
        0x200016ae:    62c8        .b      STR      r0,[r1,#0x2c]
        0x200016b0:    48b9        .H      LDR      r0,[pc,#740] ; [0x20001998] = 0x2faf0800
        0x200016b2:    6308        .c      STR      r0,[r1,#0x30]
        0x200016b4:    6348        Hc      STR      r0,[r1,#0x34]
        0x200016b6:    4770        pG      BX       lr
    IrisEncoded
        0x200016b8:    4602        .F      MOV      r2,r0
        0x200016ba:    bf00        ..      NOP      
        0x200016bc:    48b7        .H      LDR      r0,[pc,#732] ; [0x2000199c] = 0x2000400a
        0x200016be:    7800        .x      LDRB     r0,[r0,#0]
        0x200016c0:    2800        .(      CMP      r0,#0
        0x200016c2:    d0fb        ..      BEQ      0x200016bc ; IrisEncoded + 4
        0x200016c4:    4881        .H      LDR      r0,[pc,#516] ; [0x200018cc] = 0x40009300
        0x200016c6:    6840        @h      LDR      r0,[r0,#4]
        0x200016c8:    2881        .(      CMP      r0,#0x81
        0x200016ca:    d15f        _.      BNE      0x2000178c ; IrisEncoded + 212
        0x200016cc:    2a01        .*      CMP      r2,#1
        0x200016ce:    d10a        ..      BNE      0x200016e6 ; IrisEncoded + 46
        0x200016d0:    487e        ~H      LDR      r0,[pc,#504] ; [0x200018cc] = 0x40009300
        0x200016d2:    6980        .i      LDR      r0,[r0,#0x18]
        0x200016d4:    2302        .#      MOVS     r3,#2
        0x200016d6:    4318        .C      ORRS     r0,r0,r3
        0x200016d8:    4b7c        |K      LDR      r3,[pc,#496] ; [0x200018cc] = 0x40009300
        0x200016da:    6198        .a      STR      r0,[r3,#0x18]
        0x200016dc:    4618        .F      MOV      r0,r3
        0x200016de:    6980        .i      LDR      r0,[r0,#0x18]
        0x200016e0:    4390        .C      BICS     r0,r0,r2
        0x200016e2:    6198        .a      STR      r0,[r3,#0x18]
        0x200016e4:    e00b        ..      B        0x200016fe ; IrisEncoded + 70
        0x200016e6:    4879        yH      LDR      r0,[pc,#484] ; [0x200018cc] = 0x40009300
        0x200016e8:    6980        .i      LDR      r0,[r0,#0x18]
        0x200016ea:    2302        .#      MOVS     r3,#2
        0x200016ec:    4398        .C      BICS     r0,r0,r3
        0x200016ee:    4b77        wK      LDR      r3,[pc,#476] ; [0x200018cc] = 0x40009300
        0x200016f0:    6198        .a      STR      r0,[r3,#0x18]
        0x200016f2:    4618        .F      MOV      r0,r3
        0x200016f4:    6980        .i      LDR      r0,[r0,#0x18]
        0x200016f6:    2301        .#      MOVS     r3,#1
        0x200016f8:    4318        .C      ORRS     r0,r0,r3
        0x200016fa:    4b74        tK      LDR      r3,[pc,#464] ; [0x200018cc] = 0x40009300
        0x200016fc:    6198        .a      STR      r0,[r3,#0x18]
        0x200016fe:    2900        .)      CMP      r1,#0
        0x20001700:    d10c        ..      BNE      0x2000171c ; IrisEncoded + 100
        0x20001702:    4872        rH      LDR      r0,[pc,#456] ; [0x200018cc] = 0x40009300
        0x20001704:    6980        .i      LDR      r0,[r0,#0x18]
        0x20001706:    2308        .#      MOVS     r3,#8
        0x20001708:    4318        .C      ORRS     r0,r0,r3
        0x2000170a:    4b70        pK      LDR      r3,[pc,#448] ; [0x200018cc] = 0x40009300
        0x2000170c:    6198        .a      STR      r0,[r3,#0x18]
        0x2000170e:    4618        .F      MOV      r0,r3
        0x20001710:    6980        .i      LDR      r0,[r0,#0x18]
        0x20001712:    2310        .#      MOVS     r3,#0x10
        0x20001714:    4398        .C      BICS     r0,r0,r3
        0x20001716:    4b6d        mK      LDR      r3,[pc,#436] ; [0x200018cc] = 0x40009300
        0x20001718:    6198        .a      STR      r0,[r3,#0x18]
        0x2000171a:    e01a        ..      B        0x20001752 ; IrisEncoded + 154
        0x2000171c:    2901        .)      CMP      r1,#1
        0x2000171e:    d10c        ..      BNE      0x2000173a ; IrisEncoded + 130
        0x20001720:    486a        jH      LDR      r0,[pc,#424] ; [0x200018cc] = 0x40009300
        0x20001722:    6980        .i      LDR      r0,[r0,#0x18]
        0x20001724:    2308        .#      MOVS     r3,#8
        0x20001726:    4398        .C      BICS     r0,r0,r3
        0x20001728:    4b68        hK      LDR      r3,[pc,#416] ; [0x200018cc] = 0x40009300
        0x2000172a:    6198        .a      STR      r0,[r3,#0x18]
        0x2000172c:    4618        .F      MOV      r0,r3
        0x2000172e:    6980        .i      LDR      r0,[r0,#0x18]
        0x20001730:    2310        .#      MOVS     r3,#0x10
        0x20001732:    4318        .C      ORRS     r0,r0,r3
        0x20001734:    4b65        eK      LDR      r3,[pc,#404] ; [0x200018cc] = 0x40009300
        0x20001736:    6198        .a      STR      r0,[r3,#0x18]
        0x20001738:    e00b        ..      B        0x20001752 ; IrisEncoded + 154
        0x2000173a:    4864        dH      LDR      r0,[pc,#400] ; [0x200018cc] = 0x40009300
        0x2000173c:    6980        .i      LDR      r0,[r0,#0x18]
        0x2000173e:    2308        .#      MOVS     r3,#8
        0x20001740:    4318        .C      ORRS     r0,r0,r3
        0x20001742:    4b62        bK      LDR      r3,[pc,#392] ; [0x200018cc] = 0x40009300
        0x20001744:    6198        .a      STR      r0,[r3,#0x18]
        0x20001746:    4618        .F      MOV      r0,r3
        0x20001748:    6980        .i      LDR      r0,[r0,#0x18]
        0x2000174a:    2310        .#      MOVS     r3,#0x10
        0x2000174c:    4318        .C      ORRS     r0,r0,r3
        0x2000174e:    4b5f        _K      LDR      r3,[pc,#380] ; [0x200018cc] = 0x40009300
        0x20001750:    6198        .a      STR      r0,[r3,#0x18]
        0x20001752:    485e        ^H      LDR      r0,[pc,#376] ; [0x200018cc] = 0x40009300
        0x20001754:    6980        .i      LDR      r0,[r0,#0x18]
        0x20001756:    2319        .#      MOVS     r3,#0x19
        0x20001758:    4318        .C      ORRS     r0,r0,r3
        0x2000175a:    4b5c        \K      LDR      r3,[pc,#368] ; [0x200018cc] = 0x40009300
        0x2000175c:    6198        .a      STR      r0,[r3,#0x18]
        0x2000175e:    4618        .F      MOV      r0,r3
        0x20001760:    6800        .h      LDR      r0,[r0,#0]
        0x20001762:    2307        .#      MOVS     r3,#7
        0x20001764:    4318        .C      ORRS     r0,r0,r3
        0x20001766:    4b59        YK      LDR      r3,[pc,#356] ; [0x200018cc] = 0x40009300
        0x20001768:    6018        .`      STR      r0,[r3,#0]
        0x2000176a:    e007        ..      B        0x2000177c ; IrisEncoded + 196
        0x2000176c:    4857        WH      LDR      r0,[pc,#348] ; [0x200018cc] = 0x40009300
        0x2000176e:    68c0        .h      LDR      r0,[r0,#0xc]
        0x20001770:    2308        .#      MOVS     r3,#8
        0x20001772:    4018        .@      ANDS     r0,r0,r3
        0x20001774:    2800        .(      CMP      r0,#0
        0x20001776:    d001        ..      BEQ      0x2000177c ; IrisEncoded + 196
        0x20001778:    2008        .       MOVS     r0,#8
        0x2000177a:    4770        pG      BX       lr
        0x2000177c:    4853        SH      LDR      r0,[pc,#332] ; [0x200018cc] = 0x40009300
        0x2000177e:    6880        .h      LDR      r0,[r0,#8]
        0x20001780:    2308        .#      MOVS     r3,#8
        0x20001782:    4018        .@      ANDS     r0,r0,r3
        0x20001784:    2800        .(      CMP      r0,#0
        0x20001786:    d0f1        ..      BEQ      0x2000176c ; IrisEncoded + 180
        0x20001788:    2011        .       MOVS     r0,#0x11
        0x2000178a:    e7f6        ..      B        0x2000177a ; IrisEncoded + 194
        0x2000178c:    2002        .       MOVS     r0,#2
        0x2000178e:    e7f4        ..      B        0x2000177a ; IrisEncoded + 194
    IrisSaveTemplate
        0x20001790:    4601        .F      MOV      r1,r0
        0x20001792:    484e        NH      LDR      r0,[pc,#312] ; [0x200018cc] = 0x40009300
        0x20001794:    6840        @h      LDR      r0,[r0,#4]
        0x20001796:    2881        .(      CMP      r0,#0x81
        0x20001798:    d12f        /.      BNE      0x200017fa ; IrisSaveTemplate + 106
        0x2000179a:    484c        LH      LDR      r0,[pc,#304] ; [0x200018cc] = 0x40009300
        0x2000179c:    6141        Aa      STR      r1,[r0,#0x14]
        0x2000179e:    6940        @i      LDR      r0,[r0,#0x14]
        0x200017a0:    2201        ."      MOVS     r2,#1
        0x200017a2:    0412        ..      LSLS     r2,r2,#16
        0x200017a4:    4390        .C      BICS     r0,r0,r2
        0x200017a6:    4a49        IJ      LDR      r2,[pc,#292] ; [0x200018cc] = 0x40009300
        0x200017a8:    6150        Pa      STR      r0,[r2,#0x14]
        0x200017aa:    4610        .F      MOV      r0,r2
        0x200017ac:    6800        .h      LDR      r0,[r0,#0]
        0x200017ae:    2208        ."      MOVS     r2,#8
        0x200017b0:    4310        .C      ORRS     r0,r0,r2
        0x200017b2:    4a46        FJ      LDR      r2,[pc,#280] ; [0x200018cc] = 0x40009300
        0x200017b4:    6010        .`      STR      r0,[r2,#0]
        0x200017b6:    4610        .F      MOV      r0,r2
        0x200017b8:    68c0        .h      LDR      r0,[r0,#0xc]
        0x200017ba:    2204        ."      MOVS     r2,#4
        0x200017bc:    4010        .@      ANDS     r0,r0,r2
        0x200017be:    2800        .(      CMP      r0,#0
        0x200017c0:    d001        ..      BEQ      0x200017c6 ; IrisSaveTemplate + 54
        0x200017c2:    2007        .       MOVS     r0,#7
        0x200017c4:    4770        pG      BX       lr
        0x200017c6:    e007        ..      B        0x200017d8 ; IrisSaveTemplate + 72
        0x200017c8:    4840        @H      LDR      r0,[pc,#256] ; [0x200018cc] = 0x40009300
        0x200017ca:    68c0        .h      LDR      r0,[r0,#0xc]
        0x200017cc:    07c0        ..      LSLS     r0,r0,#31
        0x200017ce:    0fc0        ..      LSRS     r0,r0,#31
        0x200017d0:    2800        .(      CMP      r0,#0
        0x200017d2:    d001        ..      BEQ      0x200017d8 ; IrisSaveTemplate + 72
        0x200017d4:    2005        .       MOVS     r0,#5
        0x200017d6:    e7f5        ..      B        0x200017c4 ; IrisSaveTemplate + 52
        0x200017d8:    483c        <H      LDR      r0,[pc,#240] ; [0x200018cc] = 0x40009300
        0x200017da:    6880        .h      LDR      r0,[r0,#8]
        0x200017dc:    22ff        ."      MOVS     r2,#0xff
        0x200017de:    3201        .2      ADDS     r2,#1
        0x200017e0:    4010        .@      ANDS     r0,r0,r2
        0x200017e2:    2800        .(      CMP      r0,#0
        0x200017e4:    d0f0        ..      BEQ      0x200017c8 ; IrisSaveTemplate + 56
        0x200017e6:    4839        9H      LDR      r0,[pc,#228] ; [0x200018cc] = 0x40009300
        0x200017e8:    68c0        .h      LDR      r0,[r0,#0xc]
        0x200017ea:    2202        ."      MOVS     r2,#2
        0x200017ec:    4010        .@      ANDS     r0,r0,r2
        0x200017ee:    2800        .(      CMP      r0,#0
        0x200017f0:    d001        ..      BEQ      0x200017f6 ; IrisSaveTemplate + 102
        0x200017f2:    2006        .       MOVS     r0,#6
        0x200017f4:    e7e6        ..      B        0x200017c4 ; IrisSaveTemplate + 52
        0x200017f6:    2010        .       MOVS     r0,#0x10
        0x200017f8:    e7e4        ..      B        0x200017c4 ; IrisSaveTemplate + 52
        0x200017fa:    2002        .       MOVS     r0,#2
        0x200017fc:    e7e2        ..      B        0x200017c4 ; IrisSaveTemplate + 52
    IrisMatch
        0x200017fe:    4601        .F      MOV      r1,r0
        0x20001800:    bf00        ..      NOP      
        0x20001802:    4866        fH      LDR      r0,[pc,#408] ; [0x2000199c] = 0x2000400a
        0x20001804:    7800        .x      LDRB     r0,[r0,#0]
        0x20001806:    2800        .(      CMP      r0,#0
        0x20001808:    d0fb        ..      BEQ      0x20001802 ; IrisMatch + 4
        0x2000180a:    4830        0H      LDR      r0,[pc,#192] ; [0x200018cc] = 0x40009300
        0x2000180c:    6840        @h      LDR      r0,[r0,#4]
        0x2000180e:    2881        .(      CMP      r0,#0x81
        0x20001810:    d139        9.      BNE      0x20001886 ; IrisMatch + 136
        0x20001812:    2900        .)      CMP      r1,#0
        0x20001814:    d10c        ..      BNE      0x20001830 ; IrisMatch + 50
        0x20001816:    482d        -H      LDR      r0,[pc,#180] ; [0x200018cc] = 0x40009300
        0x20001818:    69c0        .i      LDR      r0,[r0,#0x1c]
        0x2000181a:    2201        ."      MOVS     r2,#1
        0x2000181c:    4310        .C      ORRS     r0,r0,r2
        0x2000181e:    4a2b        +J      LDR      r2,[pc,#172] ; [0x200018cc] = 0x40009300
        0x20001820:    61d0        .a      STR      r0,[r2,#0x1c]
        0x20001822:    4610        .F      MOV      r0,r2
        0x20001824:    69c0        .i      LDR      r0,[r0,#0x1c]
        0x20001826:    2202        ."      MOVS     r2,#2
        0x20001828:    4390        .C      BICS     r0,r0,r2
        0x2000182a:    4a28        (J      LDR      r2,[pc,#160] ; [0x200018cc] = 0x40009300
        0x2000182c:    61d0        .a      STR      r0,[r2,#0x1c]
        0x2000182e:    e00b        ..      B        0x20001848 ; IrisMatch + 74
        0x20001830:    4826        &H      LDR      r0,[pc,#152] ; [0x200018cc] = 0x40009300
        0x20001832:    69c0        .i      LDR      r0,[r0,#0x1c]
        0x20001834:    0840        @.      LSRS     r0,r0,#1
        0x20001836:    0040        @.      LSLS     r0,r0,#1
        0x20001838:    4a24        $J      LDR      r2,[pc,#144] ; [0x200018cc] = 0x40009300
        0x2000183a:    61d0        .a      STR      r0,[r2,#0x1c]
        0x2000183c:    4610        .F      MOV      r0,r2
        0x2000183e:    69c0        .i      LDR      r0,[r0,#0x1c]
        0x20001840:    2202        ."      MOVS     r2,#2
        0x20001842:    4310        .C      ORRS     r0,r0,r2
        0x20001844:    4a21        !J      LDR      r2,[pc,#132] ; [0x200018cc] = 0x40009300
        0x20001846:    61d0        .a      STR      r0,[r2,#0x1c]
        0x20001848:    4820         H      LDR      r0,[pc,#128] ; [0x200018cc] = 0x40009300
        0x2000184a:    6800        .h      LDR      r0,[r0,#0]
        0x2000184c:    220d        ."      MOVS     r2,#0xd
        0x2000184e:    4310        .C      ORRS     r0,r0,r2
        0x20001850:    4a1e        .J      LDR      r2,[pc,#120] ; [0x200018cc] = 0x40009300
        0x20001852:    6010        .`      STR      r0,[r2,#0]
        0x20001854:    e00f        ..      B        0x20001876 ; IrisMatch + 120
        0x20001856:    481d        .H      LDR      r0,[pc,#116] ; [0x200018cc] = 0x40009300
        0x20001858:    68c0        .h      LDR      r0,[r0,#0xc]
        0x2000185a:    2210        ."      MOVS     r2,#0x10
        0x2000185c:    4010        .@      ANDS     r0,r0,r2
        0x2000185e:    2800        .(      CMP      r0,#0
        0x20001860:    d001        ..      BEQ      0x20001866 ; IrisMatch + 104
        0x20001862:    2009        .       MOVS     r0,#9
        0x20001864:    4770        pG      BX       lr
        0x20001866:    4819        .H      LDR      r0,[pc,#100] ; [0x200018cc] = 0x40009300
        0x20001868:    6880        .h      LDR      r0,[r0,#8]
        0x2000186a:    2240        @"      MOVS     r2,#0x40
        0x2000186c:    4010        .@      ANDS     r0,r0,r2
        0x2000186e:    2800        .(      CMP      r0,#0
        0x20001870:    d001        ..      BEQ      0x20001876 ; IrisMatch + 120
        0x20001872:    200a        .       MOVS     r0,#0xa
        0x20001874:    e7f6        ..      B        0x20001864 ; IrisMatch + 102
        0x20001876:    4815        .H      LDR      r0,[pc,#84] ; [0x200018cc] = 0x40009300
        0x20001878:    6880        .h      LDR      r0,[r0,#8]
        0x2000187a:    2220         "      MOVS     r2,#0x20
        0x2000187c:    4010        .@      ANDS     r0,r0,r2
        0x2000187e:    2800        .(      CMP      r0,#0
        0x20001880:    d0e9        ..      BEQ      0x20001856 ; IrisMatch + 88
        0x20001882:    2012        .       MOVS     r0,#0x12
        0x20001884:    e7ee        ..      B        0x20001864 ; IrisMatch + 102
        0x20001886:    2002        .       MOVS     r0,#2
        0x20001888:    e7ec        ..      B        0x20001864 ; IrisMatch + 102
    IrisEraseOneTemp
        0x2000188a:    4602        .F      MOV      r2,r0
        0x2000188c:    480f        .H      LDR      r0,[pc,#60] ; [0x200018cc] = 0x40009300
        0x2000188e:    6840        @h      LDR      r0,[r0,#4]
        0x20001890:    2881        .(      CMP      r0,#0x81
        0x20001892:    d117        ..      BNE      0x200018c4 ; IrisEraseOneTemp + 58
        0x20001894:    2900        .)      CMP      r1,#0
        0x20001896:    d106        ..      BNE      0x200018a6 ; IrisEraseOneTemp + 28
        0x20001898:    480c        .H      LDR      r0,[pc,#48] ; [0x200018cc] = 0x40009300
        0x2000189a:    6900        .i      LDR      r0,[r0,#0x10]
        0x2000189c:    0840        @.      LSRS     r0,r0,#1
        0x2000189e:    0040        @.      LSLS     r0,r0,#1
        0x200018a0:    4b0a        .K      LDR      r3,[pc,#40] ; [0x200018cc] = 0x40009300
        0x200018a2:    6118        .a      STR      r0,[r3,#0x10]
        0x200018a4:    e005        ..      B        0x200018b2 ; IrisEraseOneTemp + 40
        0x200018a6:    4809        .H      LDR      r0,[pc,#36] ; [0x200018cc] = 0x40009300
        0x200018a8:    6900        .i      LDR      r0,[r0,#0x10]
        0x200018aa:    2301        .#      MOVS     r3,#1
        0x200018ac:    4318        .C      ORRS     r0,r0,r3
        0x200018ae:    4b07        .K      LDR      r3,[pc,#28] ; [0x200018cc] = 0x40009300
        0x200018b0:    6118        .a      STR      r0,[r3,#0x10]
        0x200018b2:    4806        .H      LDR      r0,[pc,#24] ; [0x200018cc] = 0x40009300
        0x200018b4:    6142        Ba      STR      r2,[r0,#0x14]
        0x200018b6:    68c0        .h      LDR      r0,[r0,#0xc]
        0x200018b8:    2304        .#      MOVS     r3,#4
        0x200018ba:    4018        .@      ANDS     r0,r0,r3
        0x200018bc:    2800        .(      CMP      r0,#0
        0x200018be:    d06f        o.      BEQ      0x200019a0 ; IrisEraseOneTemp + 278
        0x200018c0:    2007        .       MOVS     r0,#7
        0x200018c2:    4770        pG      BX       lr
        0x200018c4:    e08b        ..      B        0x200019de ; IrisEraseOneTemp + 340
        0x200018c6:    e06b        k.      B        0x200019a0 ; IrisEraseOneTemp + 278
    $d
        0x200018c8:    77686873    shhw    DCD    2003331187
        0x200018cc:    40009300    ...@    DCD    1073779456
        0x200018d0:    98badcfe    ....    DCD    2562383102
        0x200018d4:    40009100    ...@    DCD    1073778944
        0x200018d8:    10325476    vT2.    DCD    271733878
        0x200018dc:    04380780    ..8.    DCD    70780800
        0x200018e0:    006800a8    ..h.    DCD    6815912
        0x200018e4:    03a80368    h...    DCD    61342568
        0x200018e8:    042800a8    ..(.    DCD    69730472
        0x200018ec:    03a80728    (...    DCD    61343528
        0x200018f0:    00800080    ....    DCD    8388736
        0x200018f4:    00008c10    ....    DCD    35856
        0x200018f8:    00047f9c    ....    DCD    294812
        0x200018fc:    00005c0a    .\..    DCD    23562
        0x20001900:    00007f4b    K...    DCD    32587
        0x20001904:    03d40258    X...    DCD    64225880
        0x20001908:    00000a04    ....    DCD    2564
        0x2000190c:    14000200    ....    DCD    335544832
        0x20001910:    00001e03    ....    DCD    7683
        0x20001914:    14000100    ....    DCD    335544576
        0x20001918:    00005e08    .^..    DCD    24072
        0x2000191c:    00488742    B.H.    DCD    4753218
        0x20001920:    00f00010    ....    DCD    15728656
        0x20001924:    00c00008    ....    DCD    12582920
        0x20001928:    00000804    ....    DCD    2052
        0x2000192c:    00010100    ....    DCD    65792
        0x20001930:    0004e020     ...    DCD    319520
        0x20001934:    00003304    .3..    DCD    13060
        0x20001938:    00000404    ....    DCD    1028
        0x2000193c:    00050c0c    ....    DCD    330764
        0x20001940:    40009200    ...@    DCD    1073779200
        0x20001944:    f0080a2d    -...    DCD    4027058733
        0x20001948:    00083004    .0..    DCD    536580
        0x2000194c:    0000100c    ....    DCD    4108
        0x20001950:    00000303    ....    DCD    771
        0x20001954:    2f5c28f6    .(\/    DCD    794568950
        0x20001958:    000035c2    .5..    DCD    13762
        0x2000195c:    38805d64    d].8    DCD    947936612
        0x20001960:    199a1333    3...    DCD    429527859
        0x20001964:    00002666    f&..    DCD    9830
        0x20001968:    00cd0020     ...    DCD    13434912
        0x2000196c:    00b30033    3...    DCD    11730995
        0x20001970:    008d004d    M...    DCD    9240653
        0x20001974:    18e824dc    .$..    DCD    417866972
        0x20001978:    00021010    ....    DCD    135184
        0x2000197c:    00c80014    ....    DCD    13107220
        0x20001980:    0000156a    j...    DCD    5482
        0x20001984:    0000c010    ....    DCD    49168
        0x20001988:    0000199a    ....    DCD    6554
        0x2000198c:    00001852    R...    DCD    6226
        0x20001990:    3b9aca00    ...;    DCD    1000000000
        0x20001994:    02625a00    .Zb.    DCD    40000000
        0x20001998:    2faf0800    .../    DCD    800000000
        0x2000199c:    2000400a    .@.     DCD    536887306
    $t
        0x200019a0:    4899        .H      LDR      r0,[pc,#612] ; [0x20001c08] = 0x40009300
        0x200019a2:    6800        .h      LDR      r0,[r0,#0]
        0x200019a4:    230e        .#      MOVS     r3,#0xe
        0x200019a6:    4318        .C      ORRS     r0,r0,r3
        0x200019a8:    4b97        .K      LDR      r3,[pc,#604] ; [0x20001c08] = 0x40009300
        0x200019aa:    6018        .`      STR      r0,[r3,#0]
        0x200019ac:    e007        ..      B        0x200019be ; IrisEraseOneTemp + 308
        0x200019ae:    4896        .H      LDR      r0,[pc,#600] ; [0x20001c08] = 0x40009300
        0x200019b0:    68c0        .h      LDR      r0,[r0,#0xc]
        0x200019b2:    07c0        ..      LSLS     r0,r0,#31
        0x200019b4:    0fc0        ..      LSRS     r0,r0,#31
        0x200019b6:    2800        .(      CMP      r0,#0
        0x200019b8:    d001        ..      BEQ      0x200019be ; IrisEraseOneTemp + 308
        0x200019ba:    2005        .       MOVS     r0,#5
        0x200019bc:    4770        pG      BX       lr
        0x200019be:    4892        .H      LDR      r0,[pc,#584] ; [0x20001c08] = 0x40009300
        0x200019c0:    6880        .h      LDR      r0,[r0,#8]
        0x200019c2:    2380        .#      MOVS     r3,#0x80
        0x200019c4:    4018        .@      ANDS     r0,r0,r3
        0x200019c6:    2800        .(      CMP      r0,#0
        0x200019c8:    d0f1        ..      BEQ      0x200019ae ; IrisEraseOneTemp + 292
        0x200019ca:    488f        .H      LDR      r0,[pc,#572] ; [0x20001c08] = 0x40009300
        0x200019cc:    68c0        .h      LDR      r0,[r0,#0xc]
        0x200019ce:    2302        .#      MOVS     r3,#2
        0x200019d0:    4018        .@      ANDS     r0,r0,r3
        0x200019d2:    2800        .(      CMP      r0,#0
        0x200019d4:    d001        ..      BEQ      0x200019da ; IrisEraseOneTemp + 336
        0x200019d6:    2006        .       MOVS     r0,#6
        0x200019d8:    e7f0        ..      B        0x200019bc ; IrisEraseOneTemp + 306
        0x200019da:    2013        .       MOVS     r0,#0x13
        0x200019dc:    e7ee        ..      B        0x200019bc ; IrisEraseOneTemp + 306
        0x200019de:    2002        .       MOVS     r0,#2
        0x200019e0:    e7ec        ..      B        0x200019bc ; IrisEraseOneTemp + 306
    IrisEraseAllTemp
        0x200019e2:    4601        .F      MOV      r1,r0
        0x200019e4:    4888        .H      LDR      r0,[pc,#544] ; [0x20001c08] = 0x40009300
        0x200019e6:    6840        @h      LDR      r0,[r0,#4]
        0x200019e8:    2881        .(      CMP      r0,#0x81
        0x200019ea:    d12d        -.      BNE      0x20001a48 ; IrisEraseAllTemp + 102
        0x200019ec:    2900        .)      CMP      r1,#0
        0x200019ee:    d106        ..      BNE      0x200019fe ; IrisEraseAllTemp + 28
        0x200019f0:    4885        .H      LDR      r0,[pc,#532] ; [0x20001c08] = 0x40009300
        0x200019f2:    6900        .i      LDR      r0,[r0,#0x10]
        0x200019f4:    0840        @.      LSRS     r0,r0,#1
        0x200019f6:    0040        @.      LSLS     r0,r0,#1
        0x200019f8:    4a83        .J      LDR      r2,[pc,#524] ; [0x20001c08] = 0x40009300
        0x200019fa:    6110        .a      STR      r0,[r2,#0x10]
        0x200019fc:    e005        ..      B        0x20001a0a ; IrisEraseAllTemp + 40
        0x200019fe:    4882        .H      LDR      r0,[pc,#520] ; [0x20001c08] = 0x40009300
        0x20001a00:    6900        .i      LDR      r0,[r0,#0x10]
        0x20001a02:    2201        ."      MOVS     r2,#1
        0x20001a04:    4310        .C      ORRS     r0,r0,r2
        0x20001a06:    4a80        .J      LDR      r2,[pc,#512] ; [0x20001c08] = 0x40009300
        0x20001a08:    6110        .a      STR      r0,[r2,#0x10]
        0x20001a0a:    487f        .H      LDR      r0,[pc,#508] ; [0x20001c08] = 0x40009300
        0x20001a0c:    6800        .h      LDR      r0,[r0,#0]
        0x20001a0e:    220b        ."      MOVS     r2,#0xb
        0x20001a10:    4310        .C      ORRS     r0,r0,r2
        0x20001a12:    4a7d        }J      LDR      r2,[pc,#500] ; [0x20001c08] = 0x40009300
        0x20001a14:    6010        .`      STR      r0,[r2,#0]
        0x20001a16:    e007        ..      B        0x20001a28 ; IrisEraseAllTemp + 70
        0x20001a18:    487b        {H      LDR      r0,[pc,#492] ; [0x20001c08] = 0x40009300
        0x20001a1a:    68c0        .h      LDR      r0,[r0,#0xc]
        0x20001a1c:    07c0        ..      LSLS     r0,r0,#31
        0x20001a1e:    0fc0        ..      LSRS     r0,r0,#31
        0x20001a20:    2800        .(      CMP      r0,#0
        0x20001a22:    d001        ..      BEQ      0x20001a28 ; IrisEraseAllTemp + 70
        0x20001a24:    2005        .       MOVS     r0,#5
        0x20001a26:    4770        pG      BX       lr
        0x20001a28:    4877        wH      LDR      r0,[pc,#476] ; [0x20001c08] = 0x40009300
        0x20001a2a:    6880        .h      LDR      r0,[r0,#8]
        0x20001a2c:    2280        ."      MOVS     r2,#0x80
        0x20001a2e:    4010        .@      ANDS     r0,r0,r2
        0x20001a30:    2800        .(      CMP      r0,#0
        0x20001a32:    d0f1        ..      BEQ      0x20001a18 ; IrisEraseAllTemp + 54
        0x20001a34:    4874        tH      LDR      r0,[pc,#464] ; [0x20001c08] = 0x40009300
        0x20001a36:    68c0        .h      LDR      r0,[r0,#0xc]
        0x20001a38:    2202        ."      MOVS     r2,#2
        0x20001a3a:    4010        .@      ANDS     r0,r0,r2
        0x20001a3c:    2800        .(      CMP      r0,#0
        0x20001a3e:    d001        ..      BEQ      0x20001a44 ; IrisEraseAllTemp + 98
        0x20001a40:    2006        .       MOVS     r0,#6
        0x20001a42:    e7f0        ..      B        0x20001a26 ; IrisEraseAllTemp + 68
        0x20001a44:    2014        .       MOVS     r0,#0x14
        0x20001a46:    e7ee        ..      B        0x20001a26 ; IrisEraseAllTemp + 68
        0x20001a48:    2002        .       MOVS     r0,#2
        0x20001a4a:    e7ec        ..      B        0x20001a26 ; IrisEraseAllTemp + 68
    IrisDownloadTemp
        0x20001a4c:    b5f0        ..      PUSH     {r4-r7,lr}
        0x20001a4e:    4604        .F      MOV      r4,r0
        0x20001a50:    2b00        .+      CMP      r3,#0
        0x20001a52:    d120         .      BNE      0x20001a96 ; IrisDownloadTemp + 74
        0x20001a54:    2000        .       MOVS     r0,#0
        0x20001a56:    e017        ..      B        0x20001a88 ; IrisDownloadTemp + 60
        0x20001a58:    0085        ..      LSLS     r5,r0,#2
        0x20001a5a:    1ced        ..      ADDS     r5,r5,#3
        0x20001a5c:    5d65        e]      LDRB     r5,[r4,r5]
        0x20001a5e:    062d        -.      LSLS     r5,r5,#24
        0x20001a60:    0086        ..      LSLS     r6,r0,#2
        0x20001a62:    1cb6        ..      ADDS     r6,r6,#2
        0x20001a64:    5da6        .]      LDRB     r6,[r4,r6]
        0x20001a66:    0436        6.      LSLS     r6,r6,#16
        0x20001a68:    4335        5C      ORRS     r5,r5,r6
        0x20001a6a:    0086        ..      LSLS     r6,r0,#2
        0x20001a6c:    1c76        v.      ADDS     r6,r6,#1
        0x20001a6e:    5da6        .]      LDRB     r6,[r4,r6]
        0x20001a70:    0236        6.      LSLS     r6,r6,#8
        0x20001a72:    4335        5C      ORRS     r5,r5,r6
        0x20001a74:    0086        ..      LSLS     r6,r0,#2
        0x20001a76:    5da6        .]      LDRB     r6,[r4,r6]
        0x20001a78:    4335        5C      ORRS     r5,r5,r6
        0x20001a7a:    0086        ..      LSLS     r6,r0,#2
        0x20001a7c:    4f63        cO      LDR      r7,[pc,#396] ; [0x20001c0c] = 0x30090000
        0x20001a7e:    19f6        ..      ADDS     r6,r6,r7
        0x20001a80:    4617        .F      MOV      r7,r2
        0x20001a82:    434f        OC      MULS     r7,r1,r7
        0x20001a84:    51f5        .Q      STR      r5,[r6,r7]
        0x20001a86:    1c40        @.      ADDS     r0,r0,#1
        0x20001a88:    17ce        ..      ASRS     r6,r1,#31
        0x20001a8a:    0fb6        ..      LSRS     r6,r6,#30
        0x20001a8c:    1876        v.      ADDS     r6,r6,r1
        0x20001a8e:    10b6        ..      ASRS     r6,r6,#2
        0x20001a90:    4286        .B      CMP      r6,r0
        0x20001a92:    d8e1        ..      BHI      0x20001a58 ; IrisDownloadTemp + 12
        0x20001a94:    e01f        ..      B        0x20001ad6 ; IrisDownloadTemp + 138
        0x20001a96:    2000        .       MOVS     r0,#0
        0x20001a98:    e017        ..      B        0x20001aca ; IrisDownloadTemp + 126
        0x20001a9a:    0085        ..      LSLS     r5,r0,#2
        0x20001a9c:    1ced        ..      ADDS     r5,r5,#3
        0x20001a9e:    5d65        e]      LDRB     r5,[r4,r5]
        0x20001aa0:    062d        -.      LSLS     r5,r5,#24
        0x20001aa2:    0086        ..      LSLS     r6,r0,#2
        0x20001aa4:    1cb6        ..      ADDS     r6,r6,#2
        0x20001aa6:    5da6        .]      LDRB     r6,[r4,r6]
        0x20001aa8:    0436        6.      LSLS     r6,r6,#16
        0x20001aaa:    4335        5C      ORRS     r5,r5,r6
        0x20001aac:    0086        ..      LSLS     r6,r0,#2
        0x20001aae:    1c76        v.      ADDS     r6,r6,#1
        0x20001ab0:    5da6        .]      LDRB     r6,[r4,r6]
        0x20001ab2:    0236        6.      LSLS     r6,r6,#8
        0x20001ab4:    4335        5C      ORRS     r5,r5,r6
        0x20001ab6:    0086        ..      LSLS     r6,r0,#2
        0x20001ab8:    5da6        .]      LDRB     r6,[r4,r6]
        0x20001aba:    4335        5C      ORRS     r5,r5,r6
        0x20001abc:    0086        ..      LSLS     r6,r0,#2
        0x20001abe:    4f54        TO      LDR      r7,[pc,#336] ; [0x20001c10] = 0x30092000
        0x20001ac0:    19f6        ..      ADDS     r6,r6,r7
        0x20001ac2:    4617        .F      MOV      r7,r2
        0x20001ac4:    434f        OC      MULS     r7,r1,r7
        0x20001ac6:    51f5        .Q      STR      r5,[r6,r7]
        0x20001ac8:    1c40        @.      ADDS     r0,r0,#1
        0x20001aca:    17ce        ..      ASRS     r6,r1,#31
        0x20001acc:    0fb6        ..      LSRS     r6,r6,#30
        0x20001ace:    1876        v.      ADDS     r6,r6,r1
        0x20001ad0:    10b6        ..      ASRS     r6,r6,#2
        0x20001ad2:    4286        .B      CMP      r6,r0
        0x20001ad4:    d8e1        ..      BHI      0x20001a9a ; IrisDownloadTemp + 78
        0x20001ad6:    bdf0        ..      POP      {r4-r7,pc}
    IrisUploadTemp
        0x20001ad8:    b5f0        ..      PUSH     {r4-r7,lr}
        0x20001ada:    4604        .F      MOV      r4,r0
        0x20001adc:    2b00        .+      CMP      r3,#0
        0x20001ade:    d11f        ..      BNE      0x20001b20 ; IrisUploadTemp + 72
        0x20001ae0:    2000        .       MOVS     r0,#0
        0x20001ae2:    e016        ..      B        0x20001b12 ; IrisUploadTemp + 58
        0x20001ae4:    0086        ..      LSLS     r6,r0,#2
        0x20001ae6:    4f49        IO      LDR      r7,[pc,#292] ; [0x20001c0c] = 0x30090000
        0x20001ae8:    19f6        ..      ADDS     r6,r6,r7
        0x20001aea:    4617        .F      MOV      r7,r2
        0x20001aec:    434f        OC      MULS     r7,r1,r7
        0x20001aee:    59f5        .Y      LDR      r5,[r6,r7]
        0x20001af0:    0086        ..      LSLS     r6,r0,#2
        0x20001af2:    55a5        .U      STRB     r5,[r4,r6]
        0x20001af4:    042e        ..      LSLS     r6,r5,#16
        0x20001af6:    0e37        7.      LSRS     r7,r6,#24
        0x20001af8:    0086        ..      LSLS     r6,r0,#2
        0x20001afa:    1c76        v.      ADDS     r6,r6,#1
        0x20001afc:    55a7        .U      STRB     r7,[r4,r6]
        0x20001afe:    022e        ..      LSLS     r6,r5,#8
        0x20001b00:    0e37        7.      LSRS     r7,r6,#24
        0x20001b02:    0086        ..      LSLS     r6,r0,#2
        0x20001b04:    1cb6        ..      ADDS     r6,r6,#2
        0x20001b06:    55a7        .U      STRB     r7,[r4,r6]
        0x20001b08:    0e2f        /.      LSRS     r7,r5,#24
        0x20001b0a:    0086        ..      LSLS     r6,r0,#2
        0x20001b0c:    1cf6        ..      ADDS     r6,r6,#3
        0x20001b0e:    55a7        .U      STRB     r7,[r4,r6]
        0x20001b10:    1c40        @.      ADDS     r0,r0,#1
        0x20001b12:    17cf        ..      ASRS     r7,r1,#31
        0x20001b14:    0fbf        ..      LSRS     r7,r7,#30
        0x20001b16:    187f        ..      ADDS     r7,r7,r1
        0x20001b18:    10bf        ..      ASRS     r7,r7,#2
        0x20001b1a:    4287        .B      CMP      r7,r0
        0x20001b1c:    d8e2        ..      BHI      0x20001ae4 ; IrisUploadTemp + 12
        0x20001b1e:    e01e        ..      B        0x20001b5e ; IrisUploadTemp + 134
        0x20001b20:    2000        .       MOVS     r0,#0
        0x20001b22:    e016        ..      B        0x20001b52 ; IrisUploadTemp + 122
        0x20001b24:    0086        ..      LSLS     r6,r0,#2
        0x20001b26:    4f3a        :O      LDR      r7,[pc,#232] ; [0x20001c10] = 0x30092000
        0x20001b28:    19f6        ..      ADDS     r6,r6,r7
        0x20001b2a:    4617        .F      MOV      r7,r2
        0x20001b2c:    434f        OC      MULS     r7,r1,r7
        0x20001b2e:    59f5        .Y      LDR      r5,[r6,r7]
        0x20001b30:    0086        ..      LSLS     r6,r0,#2
        0x20001b32:    55a5        .U      STRB     r5,[r4,r6]
        0x20001b34:    042e        ..      LSLS     r6,r5,#16
        0x20001b36:    0e37        7.      LSRS     r7,r6,#24
        0x20001b38:    0086        ..      LSLS     r6,r0,#2
        0x20001b3a:    1c76        v.      ADDS     r6,r6,#1
        0x20001b3c:    55a7        .U      STRB     r7,[r4,r6]
        0x20001b3e:    022e        ..      LSLS     r6,r5,#8
        0x20001b40:    0e37        7.      LSRS     r7,r6,#24
        0x20001b42:    0086        ..      LSLS     r6,r0,#2
        0x20001b44:    1cb6        ..      ADDS     r6,r6,#2
        0x20001b46:    55a7        .U      STRB     r7,[r4,r6]
        0x20001b48:    0e2f        /.      LSRS     r7,r5,#24
        0x20001b4a:    0086        ..      LSLS     r6,r0,#2
        0x20001b4c:    1cf6        ..      ADDS     r6,r6,#3
        0x20001b4e:    55a7        .U      STRB     r7,[r4,r6]
        0x20001b50:    1c40        @.      ADDS     r0,r0,#1
        0x20001b52:    17cf        ..      ASRS     r7,r1,#31
        0x20001b54:    0fbf        ..      LSRS     r7,r7,#30
        0x20001b56:    187f        ..      ADDS     r7,r7,r1
        0x20001b58:    10bf        ..      ASRS     r7,r7,#2
        0x20001b5a:    4287        .B      CMP      r7,r0
        0x20001b5c:    d8e2        ..      BHI      0x20001b24 ; IrisUploadTemp + 76
        0x20001b5e:    bdf0        ..      POP      {r4-r7,pc}
    IrisDownloadImag
        0x20001b60:    b570        p.      PUSH     {r4-r6,lr}
        0x20001b62:    4603        .F      MOV      r3,r0
        0x20001b64:    2000        .       MOVS     r0,#0
        0x20001b66:    e018        ..      B        0x20001b9a ; IrisDownloadImag + 58
        0x20001b68:    0084        ..      LSLS     r4,r0,#2
        0x20001b6a:    1ce4        ..      ADDS     r4,r4,#3
        0x20001b6c:    5d1c        .]      LDRB     r4,[r3,r4]
        0x20001b6e:    0624        $.      LSLS     r4,r4,#24
        0x20001b70:    0085        ..      LSLS     r5,r0,#2
        0x20001b72:    1cad        ..      ADDS     r5,r5,#2
        0x20001b74:    5d5d        ]]      LDRB     r5,[r3,r5]
        0x20001b76:    042d        -.      LSLS     r5,r5,#16
        0x20001b78:    432c        ,C      ORRS     r4,r4,r5
        0x20001b7a:    0085        ..      LSLS     r5,r0,#2
        0x20001b7c:    1c6d        m.      ADDS     r5,r5,#1
        0x20001b7e:    5d5d        ]]      LDRB     r5,[r3,r5]
        0x20001b80:    022d        -.      LSLS     r5,r5,#8
        0x20001b82:    432c        ,C      ORRS     r4,r4,r5
        0x20001b84:    0085        ..      LSLS     r5,r0,#2
        0x20001b86:    5d5d        ]]      LDRB     r5,[r3,r5]
        0x20001b88:    432c        ,C      ORRS     r4,r4,r5
        0x20001b8a:    0085        ..      LSLS     r5,r0,#2
        0x20001b8c:    2603        .&      MOVS     r6,#3
        0x20001b8e:    0736        6.      LSLS     r6,r6,#28
        0x20001b90:    19ad        ..      ADDS     r5,r5,r6
        0x20001b92:    4616        .F      MOV      r6,r2
        0x20001b94:    434e        NC      MULS     r6,r1,r6
        0x20001b96:    51ac        .Q      STR      r4,[r5,r6]
        0x20001b98:    1c40        @.      ADDS     r0,r0,#1
        0x20001b9a:    17cd        ..      ASRS     r5,r1,#31
        0x20001b9c:    0fad        ..      LSRS     r5,r5,#30
        0x20001b9e:    186d        m.      ADDS     r5,r5,r1
        0x20001ba0:    10ad        ..      ASRS     r5,r5,#2
        0x20001ba2:    4285        .B      CMP      r5,r0
        0x20001ba4:    d8e0        ..      BHI      0x20001b68 ; IrisDownloadImag + 8
        0x20001ba6:    bd70        p.      POP      {r4-r6,pc}
    IrisUploadImag
        0x20001ba8:    b570        p.      PUSH     {r4-r6,lr}
        0x20001baa:    4603        .F      MOV      r3,r0
        0x20001bac:    4614        .F      MOV      r4,r2
        0x20001bae:    2000        .       MOVS     r0,#0
        0x20001bb0:    e017        ..      B        0x20001be2 ; IrisUploadImag + 58
        0x20001bb2:    0085        ..      LSLS     r5,r0,#2
        0x20001bb4:    2603        .&      MOVS     r6,#3
        0x20001bb6:    0736        6.      LSLS     r6,r6,#28
        0x20001bb8:    19ad        ..      ADDS     r5,r5,r6
        0x20001bba:    4626        &F      MOV      r6,r4
        0x20001bbc:    434e        NC      MULS     r6,r1,r6
        0x20001bbe:    59aa        .Y      LDR      r2,[r5,r6]
        0x20001bc0:    0085        ..      LSLS     r5,r0,#2
        0x20001bc2:    555a        ZU      STRB     r2,[r3,r5]
        0x20001bc4:    0415        ..      LSLS     r5,r2,#16
        0x20001bc6:    0e2e        ..      LSRS     r6,r5,#24
        0x20001bc8:    0085        ..      LSLS     r5,r0,#2
        0x20001bca:    1c6d        m.      ADDS     r5,r5,#1
        0x20001bcc:    555e        ^U      STRB     r6,[r3,r5]
        0x20001bce:    0215        ..      LSLS     r5,r2,#8
        0x20001bd0:    0e2e        ..      LSRS     r6,r5,#24
        0x20001bd2:    0085        ..      LSLS     r5,r0,#2
        0x20001bd4:    1cad        ..      ADDS     r5,r5,#2
        0x20001bd6:    555e        ^U      STRB     r6,[r3,r5]
        0x20001bd8:    0e16        ..      LSRS     r6,r2,#24
        0x20001bda:    0085        ..      LSLS     r5,r0,#2
        0x20001bdc:    1ced        ..      ADDS     r5,r5,#3
        0x20001bde:    555e        ^U      STRB     r6,[r3,r5]
        0x20001be0:    1c40        @.      ADDS     r0,r0,#1
        0x20001be2:    17ce        ..      ASRS     r6,r1,#31
        0x20001be4:    0fb6        ..      LSRS     r6,r6,#30
        0x20001be6:    1876        v.      ADDS     r6,r6,r1
        0x20001be8:    10b6        ..      ASRS     r6,r6,#2
        0x20001bea:    4286        .B      CMP      r6,r0
        0x20001bec:    d8e1        ..      BHI      0x20001bb2 ; IrisUploadImag + 10
        0x20001bee:    bd70        p.      POP      {r4-r6,pc}
    DSP1_IRQHandler
        0x20001bf0:    b510        ..      PUSH     {r4,lr}
        0x20001bf2:    4808        .H      LDR      r0,[pc,#32] ; [0x20001c14] = 0x7530
        0x20001bf4:    f7fff98e    ....    BL       delay ; 0x20000f14
        0x20001bf8:    4803        .H      LDR      r0,[pc,#12] ; [0x20001c08] = 0x40009300
        0x20001bfa:    6800        .h      LDR      r0,[r0,#0]
        0x20001bfc:    2101        .!      MOVS     r1,#1
        0x20001bfe:    0409        ..      LSLS     r1,r1,#16
        0x20001c00:    4308        .C      ORRS     r0,r0,r1
        0x20001c02:    4901        .I      LDR      r1,[pc,#4] ; [0x20001c08] = 0x40009300
        0x20001c04:    6008        .`      STR      r0,[r1,#0]
        0x20001c06:    bd10        ..      POP      {r4,pc}
    $d
        0x20001c08:    40009300    ...@    DCD    1073779456
        0x20001c0c:    30090000    ...0    DCD    805896192
        0x20001c10:    30092000    . .0    DCD    805904384
        0x20001c14:    00007530    0u..    DCD    30000
    $t
    .text
    hs_data_send
        0x20001c18:    4770        pG      BX       lr
    hs_protocol
        0x20001c1a:    b0ff        ..      SUB      sp,sp,#0x1fc
        0x20001c1c:    b0ff        ..      SUB      sp,sp,#0x1fc
        0x20001c1e:    b0ba        ..      SUB      sp,sp,#0xe8
        0x20001c20:    e3fd        ..      B        0x2000241e ; hs_protocol + 2052
        0x20001c22:    48fe        .H      LDR      r0,[pc,#1016] ; [0x2000201c] = 0x20004000
        0x20001c24:    7800        .x      LDRB     r0,[r0,#0]
        0x20001c26:    2800        .(      CMP      r0,#0
        0x20001c28:    d0fa        ..      BEQ      0x20001c20 ; hs_protocol + 6
        0x20001c2a:    48fd        .H      LDR      r0,[pc,#1012] ; [0x20002020] = 0x20004010
        0x20001c2c:    7900        .y      LDRB     r0,[r0,#4]
        0x20001c2e:    0200        ..      LSLS     r0,r0,#8
        0x20001c30:    49fb        .I      LDR      r1,[pc,#1004] ; [0x20002020] = 0x20004010
        0x20001c32:    7949        Iy      LDRB     r1,[r1,#5]
        0x20001c34:    4308        .C      ORRS     r0,r0,r1
        0x20001c36:    49fb        .I      LDR      r1,[pc,#1004] ; [0x20002024] = 0x2000400e
        0x20001c38:    8008        ..      STRH     r0,[r1,#0]
        0x20001c3a:    4608        .F      MOV      r0,r1
        0x20001c3c:    8800        ..      LDRH     r0,[r0,#0]
        0x20001c3e:    4afa        .J      LDR      r2,[pc,#1000] ; [0x20002028] = 0x302
        0x20001c40:    1a81        ..      SUBS     r1,r0,r2
        0x20001c42:    4290        .B      CMP      r0,r2
        0x20001c44:    d07e        ~.      BEQ      0x20001d44 ; hs_protocol + 298
        0x20001c46:    dc1a        ..      BGT      0x20001c7e ; hs_protocol + 100
        0x20001c48:    4af8        .J      LDR      r2,[pc,#992] ; [0x2000202c] = 0x104
        0x20001c4a:    1a81        ..      SUBS     r1,r0,r2
        0x20001c4c:    4290        .B      CMP      r0,r2
        0x20001c4e:    d07a        z.      BEQ      0x20001d46 ; hs_protocol + 300
        0x20001c50:    dc0a        ..      BGT      0x20001c68 ; hs_protocol + 78
        0x20001c52:    2801        .(      CMP      r0,#1
        0x20001c54:    d031        1.      BEQ      0x20001cba ; hs_protocol + 160
        0x20001c56:    38ff        .8      SUBS     r0,r0,#0xff
        0x20001c58:    3802        .8      SUBS     r0,#2
        0x20001c5a:    2800        .(      CMP      r0,#0
        0x20001c5c:    d04e        N.      BEQ      0x20001cfc ; hs_protocol + 226
        0x20001c5e:    2801        .(      CMP      r0,#1
        0x20001c60:    d072        r.      BEQ      0x20001d48 ; hs_protocol + 302
        0x20001c62:    2802        .(      CMP      r0,#2
        0x20001c64:    d171        q.      BNE      0x20001d4a ; hs_protocol + 304
        0x20001c66:    e0f8        ..      B        0x20001e5a ; hs_protocol + 576
        0x20001c68:    2901        .)      CMP      r1,#1
        0x20001c6a:    d06f        o.      BEQ      0x20001d4c ; hs_protocol + 306
        0x20001c6c:    29fd        .)      CMP      r1,#0xfd
        0x20001c6e:    d06e        n.      BEQ      0x20001d4e ; hs_protocol + 308
        0x20001c70:    29fe        .)      CMP      r1,#0xfe
        0x20001c72:    d06d        m.      BEQ      0x20001d50 ; hs_protocol + 310
        0x20001c74:    39ff        .9      SUBS     r1,r1,#0xff
        0x20001c76:    39fe        .9      SUBS     r1,r1,#0xfe
        0x20001c78:    2900        .)      CMP      r1,#0
        0x20001c7a:    d1f3        ..      BNE      0x20001c64 ; hs_protocol + 74
        0x20001c7c:    e1b2        ..      B        0x20001fe4 ; hs_protocol + 970
        0x20001c7e:    4aeb        .J      LDR      r2,[pc,#940] ; [0x2000202c] = 0x104
        0x20001c80:    32fd        .2      ADDS     r2,r2,#0xfd
        0x20001c82:    1a88        ..      SUBS     r0,r1,r2
        0x20001c84:    4291        .B      CMP      r1,r2
        0x20001c86:    d07b        {.      BEQ      0x20001d80 ; hs_protocol + 358
        0x20001c88:    dc0c        ..      BGT      0x20001ca4 ; hs_protocol + 138
        0x20001c8a:    29ff        .)      CMP      r1,#0xff
        0x20001c8c:    d079        y.      BEQ      0x20001d82 ; hs_protocol + 360
        0x20001c8e:    1fc8        ..      SUBS     r0,r1,#7
        0x20001c90:    38f9        .8      SUBS     r0,r0,#0xf9
        0x20001c92:    2800        .(      CMP      r0,#0
        0x20001c94:    d076        v.      BEQ      0x20001d84 ; hs_protocol + 362
        0x20001c96:    28ff        .(      CMP      r0,#0xff
        0x20001c98:    d075        u.      BEQ      0x20001d86 ; hs_protocol + 364
        0x20001c9a:    38ff        .8      SUBS     r0,r0,#0xff
        0x20001c9c:    3801        .8      SUBS     r0,#1
        0x20001c9e:    2800        .(      CMP      r0,#0
        0x20001ca0:    d1e0        ..      BNE      0x20001c64 ; hs_protocol + 74
        0x20001ca2:    e380        ..      B        0x200023a6 ; hs_protocol + 1932
        0x20001ca4:    2801        .(      CMP      r0,#1
        0x20001ca6:    d06f        o.      BEQ      0x20001d88 ; hs_protocol + 366
        0x20001ca8:    2802        .(      CMP      r0,#2
        0x20001caa:    d06e        n.      BEQ      0x20001d8a ; hs_protocol + 368
        0x20001cac:    2803        .(      CMP      r0,#3
        0x20001cae:    d06d        m.      BEQ      0x20001d8c ; hs_protocol + 370
        0x20001cb0:    49df        .I      LDR      r1,[pc,#892] ; [0x20002030] = 0xffff0504
        0x20001cb2:    1840        @.      ADDS     r0,r0,r1
        0x20001cb4:    2800        .(      CMP      r0,#0
        0x20001cb6:    d1d5        ..      BNE      0x20001c64 ; hs_protocol + 74
        0x20001cb8:    e3f6        ..      B        0x200024a8 ; hs_protocol + 2190
        0x20001cba:    20e0        .       MOVS     r0,#0xe0
        0x20001cbc:    49dd        .I      LDR      r1,[pc,#884] ; [0x20002034] = 0x200047e0
        0x20001cbe:    7008        .p      STRB     r0,[r1,#0]
        0x20001cc0:    200e        .       MOVS     r0,#0xe
        0x20001cc2:    7048        Hp      STRB     r0,[r1,#1]
        0x20001cc4:    2000        .       MOVS     r0,#0
        0x20001cc6:    7088        .p      STRB     r0,[r1,#2]
        0x20001cc8:    200a        .       MOVS     r0,#0xa
        0x20001cca:    70c8        .p      STRB     r0,[r1,#3]
        0x20001ccc:    48d5        .H      LDR      r0,[pc,#852] ; [0x20002024] = 0x2000400e
        0x20001cce:    8800        ..      LDRH     r0,[r0,#0]
        0x20001cd0:    1200        ..      ASRS     r0,r0,#8
        0x20001cd2:    7108        .q      STRB     r0,[r1,#4]
        0x20001cd4:    48d3        .H      LDR      r0,[pc,#844] ; [0x20002024] = 0x2000400e
        0x20001cd6:    7800        .x      LDRB     r0,[r0,#0]
        0x20001cd8:    7148        Hq      STRB     r0,[r1,#5]
        0x20001cda:    48d7        .H      LDR      r0,[pc,#860] ; [0x20002038] = 0x40009300
        0x20001cdc:    6840        @h      LDR      r0,[r0,#4]
        0x20001cde:    7188        .q      STRB     r0,[r1,#6]
        0x20001ce0:    2000        .       MOVS     r0,#0
        0x20001ce2:    71c8        .q      STRB     r0,[r1,#7]
        0x20001ce4:    7208        .r      STRB     r0,[r1,#8]
        0x20001ce6:    2109        .!      MOVS     r1,#9
        0x20001ce8:    48d2        .H      LDR      r0,[pc,#840] ; [0x20002034] = 0x200047e0
        0x20001cea:    f7fff8f5    ....    BL       CalCRC8 ; 0x20000ed8
        0x20001cee:    49d1        .I      LDR      r1,[pc,#836] ; [0x20002034] = 0x200047e0
        0x20001cf0:    7248        Hr      STRB     r0,[r1,#9]
        0x20001cf2:    210a        .!      MOVS     r1,#0xa
        0x20001cf4:    48cf        .H      LDR      r0,[pc,#828] ; [0x20002034] = 0x200047e0
        0x20001cf6:    f7ffff8f    ....    BL       hs_data_send ; 0x20001c18
        0x20001cfa:    bf00        ..      NOP      
        0x20001cfc:    48c8        .H      LDR      r0,[pc,#800] ; [0x20002020] = 0x20004010
        0x20001cfe:    7a40        @z      LDRB     r0,[r0,#9]
        0x20001d00:    a9ff        ..      ADD      r1,sp,#0x3fc
        0x20001d02:    3184        .1      ADDS     r1,r1,#0x84
        0x20001d04:    6548        He      STR      r0,[r1,#0x54]
        0x20001d06:    48c6        .H      LDR      r0,[pc,#792] ; [0x20002020] = 0x20004010
        0x20001d08:    7a81        .z      LDRB     r1,[r0,#0xa]
        0x20001d0a:    a8ff        ..      ADD      r0,sp,#0x3fc
        0x20001d0c:    3084        .0      ADDS     r0,r0,#0x84
        0x20001d0e:    6501        .e      STR      r1,[r0,#0x50]
        0x20001d10:    6d01        .m      LDR      r1,[r0,#0x50]
        0x20001d12:    6d40        @m      LDR      r0,[r0,#0x54]
        0x20001d14:    f7fffcd0    ....    BL       IrisEncoded ; 0x200016b8
        0x20001d18:    49c8        .I      LDR      r1,[pc,#800] ; [0x2000203c] = 0x2000400c
        0x20001d1a:    7008        .p      STRB     r0,[r1,#0]
        0x20001d1c:    4608        .F      MOV      r0,r1
        0x20001d1e:    7800        .x      LDRB     r0,[r0,#0]
        0x20001d20:    2811        .(      CMP      r0,#0x11
        0x20001d22:    d104        ..      BNE      0x20001d2e ; hs_protocol + 276
        0x20001d24:    2018        .       MOVS     r0,#0x18
        0x20001d26:    f7fffd33    ..3.    BL       IrisSaveTemplate ; 0x20001790
        0x20001d2a:    49c4        .I      LDR      r1,[pc,#784] ; [0x2000203c] = 0x2000400c
        0x20001d2c:    7008        .p      STRB     r0,[r1,#0]
        0x20001d2e:    20e0        .       MOVS     r0,#0xe0
        0x20001d30:    49c0        .I      LDR      r1,[pc,#768] ; [0x20002034] = 0x200047e0
        0x20001d32:    7008        .p      STRB     r0,[r1,#0]
        0x20001d34:    200e        .       MOVS     r0,#0xe
        0x20001d36:    7048        Hp      STRB     r0,[r1,#1]
        0x20001d38:    2000        .       MOVS     r0,#0
        0x20001d3a:    7088        .p      STRB     r0,[r1,#2]
        0x20001d3c:    200a        .       MOVS     r0,#0xa
        0x20001d3e:    70c8        .p      STRB     r0,[r1,#3]
        0x20001d40:    48b8        .H      LDR      r0,[pc,#736] ; [0x20002024] = 0x2000400e
        0x20001d42:    e006        ..      B        0x20001d52 ; hs_protocol + 312
        0x20001d44:    e19b        ..      B        0x2000207e ; hs_protocol + 1124
        0x20001d46:    e0bd        ..      B        0x20001ec4 ; hs_protocol + 682
        0x20001d48:    e050        P.      B        0x20001dec ; hs_protocol + 466
        0x20001d4a:    e3fd        ..      B        0x20002548 ; hs_protocol + 2350
        0x20001d4c:    e01f        ..      B        0x20001d8e ; hs_protocol + 372
        0x20001d4e:    e0e4        ..      B        0x20001f1a ; hs_protocol + 768
        0x20001d50:    e115        ..      B        0x20001f7e ; hs_protocol + 868
        0x20001d52:    8800        ..      LDRH     r0,[r0,#0]
        0x20001d54:    1200        ..      ASRS     r0,r0,#8
        0x20001d56:    7108        .q      STRB     r0,[r1,#4]
        0x20001d58:    48b2        .H      LDR      r0,[pc,#712] ; [0x20002024] = 0x2000400e
        0x20001d5a:    7800        .x      LDRB     r0,[r0,#0]
        0x20001d5c:    7148        Hq      STRB     r0,[r1,#5]
        0x20001d5e:    48b7        .H      LDR      r0,[pc,#732] ; [0x2000203c] = 0x2000400c
        0x20001d60:    7800        .x      LDRB     r0,[r0,#0]
        0x20001d62:    7188        .q      STRB     r0,[r1,#6]
        0x20001d64:    2000        .       MOVS     r0,#0
        0x20001d66:    71c8        .q      STRB     r0,[r1,#7]
        0x20001d68:    7208        .r      STRB     r0,[r1,#8]
        0x20001d6a:    2109        .!      MOVS     r1,#9
        0x20001d6c:    48b1        .H      LDR      r0,[pc,#708] ; [0x20002034] = 0x200047e0
        0x20001d6e:    f7fff8b3    ....    BL       CalCRC8 ; 0x20000ed8
        0x20001d72:    49b0        .I      LDR      r1,[pc,#704] ; [0x20002034] = 0x200047e0
        0x20001d74:    7248        Hr      STRB     r0,[r1,#9]
        0x20001d76:    210a        .!      MOVS     r1,#0xa
        0x20001d78:    48ae        .H      LDR      r0,[pc,#696] ; [0x20002034] = 0x200047e0
        0x20001d7a:    f7ffff4d    ..M.    BL       hs_data_send ; 0x20001c18
        0x20001d7e:    e3e8        ..      B        0x20002552 ; hs_protocol + 2360
        0x20001d80:    e260        `.      B        0x20002244 ; hs_protocol + 1578
        0x20001d82:    e1b5        ..      B        0x200020f0 ; hs_protocol + 1238
        0x20001d84:    e1ee        ..      B        0x20002164 ; hs_protocol + 1354
        0x20001d86:    e21e        ..      B        0x200021c6 ; hs_protocol + 1452
        0x20001d88:    e34d        M.      B        0x20002426 ; hs_protocol + 2060
        0x20001d8a:    e2dc        ..      B        0x20002346 ; hs_protocol + 1836
        0x20001d8c:    e2aa        ..      B        0x200022e4 ; hs_protocol + 1738
        0x20001d8e:    48a4        .H      LDR      r0,[pc,#656] ; [0x20002020] = 0x20004010
        0x20001d90:    7a40        @z      LDRB     r0,[r0,#9]
        0x20001d92:    0200        ..      LSLS     r0,r0,#8
        0x20001d94:    49a2        .I      LDR      r1,[pc,#648] ; [0x20002020] = 0x20004010
        0x20001d96:    7a89        .z      LDRB     r1,[r1,#0xa]
        0x20001d98:    4308        .C      ORRS     r0,r0,r1
        0x20001d9a:    a9ff        ..      ADD      r1,sp,#0x3fc
        0x20001d9c:    3184        .1      ADDS     r1,r1,#0x84
        0x20001d9e:    6448        Hd      STR      r0,[r1,#0x44]
        0x20001da0:    6c48        Hl      LDR      r0,[r1,#0x44]
        0x20001da2:    f7fffcf5    ....    BL       IrisSaveTemplate ; 0x20001790
        0x20001da6:    49a5        .I      LDR      r1,[pc,#660] ; [0x2000203c] = 0x2000400c
        0x20001da8:    7008        .p      STRB     r0,[r1,#0]
        0x20001daa:    20e0        .       MOVS     r0,#0xe0
        0x20001dac:    49a1        .I      LDR      r1,[pc,#644] ; [0x20002034] = 0x200047e0
        0x20001dae:    7008        .p      STRB     r0,[r1,#0]
        0x20001db0:    200e        .       MOVS     r0,#0xe
        0x20001db2:    7048        Hp      STRB     r0,[r1,#1]
        0x20001db4:    2000        .       MOVS     r0,#0
        0x20001db6:    7088        .p      STRB     r0,[r1,#2]
        0x20001db8:    200a        .       MOVS     r0,#0xa
        0x20001dba:    70c8        .p      STRB     r0,[r1,#3]
        0x20001dbc:    4899        .H      LDR      r0,[pc,#612] ; [0x20002024] = 0x2000400e
        0x20001dbe:    8800        ..      LDRH     r0,[r0,#0]
        0x20001dc0:    1200        ..      ASRS     r0,r0,#8
        0x20001dc2:    7108        .q      STRB     r0,[r1,#4]
        0x20001dc4:    4897        .H      LDR      r0,[pc,#604] ; [0x20002024] = 0x2000400e
        0x20001dc6:    7800        .x      LDRB     r0,[r0,#0]
        0x20001dc8:    7148        Hq      STRB     r0,[r1,#5]
        0x20001dca:    489c        .H      LDR      r0,[pc,#624] ; [0x2000203c] = 0x2000400c
        0x20001dcc:    7800        .x      LDRB     r0,[r0,#0]
        0x20001dce:    7188        .q      STRB     r0,[r1,#6]
        0x20001dd0:    2000        .       MOVS     r0,#0
        0x20001dd2:    71c8        .q      STRB     r0,[r1,#7]
        0x20001dd4:    7208        .r      STRB     r0,[r1,#8]
        0x20001dd6:    2109        .!      MOVS     r1,#9
        0x20001dd8:    4896        .H      LDR      r0,[pc,#600] ; [0x20002034] = 0x200047e0
        0x20001dda:    f7fff87d    ..}.    BL       CalCRC8 ; 0x20000ed8
        0x20001dde:    4995        .I      LDR      r1,[pc,#596] ; [0x20002034] = 0x200047e0
        0x20001de0:    7248        Hr      STRB     r0,[r1,#9]
        0x20001de2:    210a        .!      MOVS     r1,#0xa
        0x20001de4:    4893        .H      LDR      r0,[pc,#588] ; [0x20002034] = 0x200047e0
        0x20001de6:    f7ffff17    ....    BL       hs_data_send ; 0x20001c18
        0x20001dea:    e3b2        ..      B        0x20002552 ; hs_protocol + 2360
        0x20001dec:    488c        .H      LDR      r0,[pc,#560] ; [0x20002020] = 0x20004010
        0x20001dee:    7a40        @z      LDRB     r0,[r0,#9]
        0x20001df0:    a9ff        ..      ADD      r1,sp,#0x3fc
        0x20001df2:    3184        .1      ADDS     r1,r1,#0x84
        0x20001df4:    64c8        .d      STR      r0,[r1,#0x4c]
        0x20001df6:    2100        .!      MOVS     r1,#0
        0x20001df8:    4608        .F      MOV      r0,r1
        0x20001dfa:    f7fffc5d    ..].    BL       IrisEncoded ; 0x200016b8
        0x20001dfe:    498f        .I      LDR      r1,[pc,#572] ; [0x2000203c] = 0x2000400c
        0x20001e00:    7008        .p      STRB     r0,[r1,#0]
        0x20001e02:    4608        .F      MOV      r0,r1
        0x20001e04:    7800        .x      LDRB     r0,[r0,#0]
        0x20001e06:    2811        .(      CMP      r0,#0x11
        0x20001e08:    d106        ..      BNE      0x20001e18 ; hs_protocol + 510
        0x20001e0a:    a8ff        ..      ADD      r0,sp,#0x3fc
        0x20001e0c:    3084        .0      ADDS     r0,r0,#0x84
        0x20001e0e:    6cc0        .l      LDR      r0,[r0,#0x4c]
        0x20001e10:    f7fffcf5    ....    BL       IrisMatch ; 0x200017fe
        0x20001e14:    4989        .I      LDR      r1,[pc,#548] ; [0x2000203c] = 0x2000400c
        0x20001e16:    7008        .p      STRB     r0,[r1,#0]
        0x20001e18:    20e0        .       MOVS     r0,#0xe0
        0x20001e1a:    4986        .I      LDR      r1,[pc,#536] ; [0x20002034] = 0x200047e0
        0x20001e1c:    7008        .p      STRB     r0,[r1,#0]
        0x20001e1e:    200e        .       MOVS     r0,#0xe
        0x20001e20:    7048        Hp      STRB     r0,[r1,#1]
        0x20001e22:    2000        .       MOVS     r0,#0
        0x20001e24:    7088        .p      STRB     r0,[r1,#2]
        0x20001e26:    200a        .       MOVS     r0,#0xa
        0x20001e28:    70c8        .p      STRB     r0,[r1,#3]
        0x20001e2a:    487e        ~H      LDR      r0,[pc,#504] ; [0x20002024] = 0x2000400e
        0x20001e2c:    8800        ..      LDRH     r0,[r0,#0]
        0x20001e2e:    1200        ..      ASRS     r0,r0,#8
        0x20001e30:    7108        .q      STRB     r0,[r1,#4]
        0x20001e32:    487c        |H      LDR      r0,[pc,#496] ; [0x20002024] = 0x2000400e
        0x20001e34:    7800        .x      LDRB     r0,[r0,#0]
        0x20001e36:    7148        Hq      STRB     r0,[r1,#5]
        0x20001e38:    4880        .H      LDR      r0,[pc,#512] ; [0x2000203c] = 0x2000400c
        0x20001e3a:    7800        .x      LDRB     r0,[r0,#0]
        0x20001e3c:    7188        .q      STRB     r0,[r1,#6]
        0x20001e3e:    2000        .       MOVS     r0,#0
        0x20001e40:    71c8        .q      STRB     r0,[r1,#7]
        0x20001e42:    7208        .r      STRB     r0,[r1,#8]
        0x20001e44:    2109        .!      MOVS     r1,#9
        0x20001e46:    487b        {H      LDR      r0,[pc,#492] ; [0x20002034] = 0x200047e0
        0x20001e48:    f7fff846    ..F.    BL       CalCRC8 ; 0x20000ed8
        0x20001e4c:    4979        yI      LDR      r1,[pc,#484] ; [0x20002034] = 0x200047e0
        0x20001e4e:    7248        Hr      STRB     r0,[r1,#9]
        0x20001e50:    210a        .!      MOVS     r1,#0xa
        0x20001e52:    4878        xH      LDR      r0,[pc,#480] ; [0x20002034] = 0x200047e0
        0x20001e54:    f7fffee0    ....    BL       hs_data_send ; 0x20001c18
        0x20001e58:    e37b        {.      B        0x20002552 ; hs_protocol + 2360
        0x20001e5a:    4871        qH      LDR      r0,[pc,#452] ; [0x20002020] = 0x20004010
        0x20001e5c:    7a40        @z      LDRB     r0,[r0,#9]
        0x20001e5e:    0200        ..      LSLS     r0,r0,#8
        0x20001e60:    496f        oI      LDR      r1,[pc,#444] ; [0x20002020] = 0x20004010
        0x20001e62:    7a89        .z      LDRB     r1,[r1,#0xa]
        0x20001e64:    4308        .C      ORRS     r0,r0,r1
        0x20001e66:    a9ff        ..      ADD      r1,sp,#0x3fc
        0x20001e68:    3184        .1      ADDS     r1,r1,#0x84
        0x20001e6a:    6448        Hd      STR      r0,[r1,#0x44]
        0x20001e6c:    486c        lH      LDR      r0,[pc,#432] ; [0x20002020] = 0x20004010
        0x20001e6e:    7ac1        .z      LDRB     r1,[r0,#0xb]
        0x20001e70:    a8ff        ..      ADD      r0,sp,#0x3fc
        0x20001e72:    3084        .0      ADDS     r0,r0,#0x84
        0x20001e74:    6481        .d      STR      r1,[r0,#0x48]
        0x20001e76:    6c81        .l      LDR      r1,[r0,#0x48]
        0x20001e78:    6c40        @l      LDR      r0,[r0,#0x44]
        0x20001e7a:    f7fffd06    ....    BL       IrisEraseOneTemp ; 0x2000188a
        0x20001e7e:    496f        oI      LDR      r1,[pc,#444] ; [0x2000203c] = 0x2000400c
        0x20001e80:    7008        .p      STRB     r0,[r1,#0]
        0x20001e82:    20e0        .       MOVS     r0,#0xe0
        0x20001e84:    496b        kI      LDR      r1,[pc,#428] ; [0x20002034] = 0x200047e0
        0x20001e86:    7008        .p      STRB     r0,[r1,#0]
        0x20001e88:    200e        .       MOVS     r0,#0xe
        0x20001e8a:    7048        Hp      STRB     r0,[r1,#1]
        0x20001e8c:    2000        .       MOVS     r0,#0
        0x20001e8e:    7088        .p      STRB     r0,[r1,#2]
        0x20001e90:    200a        .       MOVS     r0,#0xa
        0x20001e92:    70c8        .p      STRB     r0,[r1,#3]
        0x20001e94:    4863        cH      LDR      r0,[pc,#396] ; [0x20002024] = 0x2000400e
        0x20001e96:    8800        ..      LDRH     r0,[r0,#0]
        0x20001e98:    1200        ..      ASRS     r0,r0,#8
        0x20001e9a:    7108        .q      STRB     r0,[r1,#4]
        0x20001e9c:    4861        aH      LDR      r0,[pc,#388] ; [0x20002024] = 0x2000400e
        0x20001e9e:    7800        .x      LDRB     r0,[r0,#0]
        0x20001ea0:    7148        Hq      STRB     r0,[r1,#5]
        0x20001ea2:    4866        fH      LDR      r0,[pc,#408] ; [0x2000203c] = 0x2000400c
        0x20001ea4:    7800        .x      LDRB     r0,[r0,#0]
        0x20001ea6:    7188        .q      STRB     r0,[r1,#6]
        0x20001ea8:    2000        .       MOVS     r0,#0
        0x20001eaa:    71c8        .q      STRB     r0,[r1,#7]
        0x20001eac:    7208        .r      STRB     r0,[r1,#8]
        0x20001eae:    2109        .!      MOVS     r1,#9
        0x20001eb0:    4860        `H      LDR      r0,[pc,#384] ; [0x20002034] = 0x200047e0
        0x20001eb2:    f7fff811    ....    BL       CalCRC8 ; 0x20000ed8
        0x20001eb6:    495f        _I      LDR      r1,[pc,#380] ; [0x20002034] = 0x200047e0
        0x20001eb8:    7248        Hr      STRB     r0,[r1,#9]
        0x20001eba:    210a        .!      MOVS     r1,#0xa
        0x20001ebc:    485d        ]H      LDR      r0,[pc,#372] ; [0x20002034] = 0x200047e0
        0x20001ebe:    f7fffeab    ....    BL       hs_data_send ; 0x20001c18
        0x20001ec2:    e346        F.      B        0x20002552 ; hs_protocol + 2360
        0x20001ec4:    4856        VH      LDR      r0,[pc,#344] ; [0x20002020] = 0x20004010
        0x20001ec6:    7a41        Az      LDRB     r1,[r0,#9]
        0x20001ec8:    a8ff        ..      ADD      r0,sp,#0x3fc
        0x20001eca:    3084        .0      ADDS     r0,r0,#0x84
        0x20001ecc:    6481        .d      STR      r1,[r0,#0x48]
        0x20001ece:    6c80        .l      LDR      r0,[r0,#0x48]
        0x20001ed0:    f7fffd87    ....    BL       IrisEraseAllTemp ; 0x200019e2
        0x20001ed4:    4959        YI      LDR      r1,[pc,#356] ; [0x2000203c] = 0x2000400c
        0x20001ed6:    7008        .p      STRB     r0,[r1,#0]
        0x20001ed8:    20e0        .       MOVS     r0,#0xe0
        0x20001eda:    4956        VI      LDR      r1,[pc,#344] ; [0x20002034] = 0x200047e0
        0x20001edc:    7008        .p      STRB     r0,[r1,#0]
        0x20001ede:    200e        .       MOVS     r0,#0xe
        0x20001ee0:    7048        Hp      STRB     r0,[r1,#1]
        0x20001ee2:    2000        .       MOVS     r0,#0
        0x20001ee4:    7088        .p      STRB     r0,[r1,#2]
        0x20001ee6:    200a        .       MOVS     r0,#0xa
        0x20001ee8:    70c8        .p      STRB     r0,[r1,#3]
        0x20001eea:    484e        NH      LDR      r0,[pc,#312] ; [0x20002024] = 0x2000400e
        0x20001eec:    8800        ..      LDRH     r0,[r0,#0]
        0x20001eee:    1200        ..      ASRS     r0,r0,#8
        0x20001ef0:    7108        .q      STRB     r0,[r1,#4]
        0x20001ef2:    484c        LH      LDR      r0,[pc,#304] ; [0x20002024] = 0x2000400e
        0x20001ef4:    7800        .x      LDRB     r0,[r0,#0]
        0x20001ef6:    7148        Hq      STRB     r0,[r1,#5]
        0x20001ef8:    4850        PH      LDR      r0,[pc,#320] ; [0x2000203c] = 0x2000400c
        0x20001efa:    7800        .x      LDRB     r0,[r0,#0]
        0x20001efc:    7188        .q      STRB     r0,[r1,#6]
        0x20001efe:    2000        .       MOVS     r0,#0
        0x20001f00:    71c8        .q      STRB     r0,[r1,#7]
        0x20001f02:    7208        .r      STRB     r0,[r1,#8]
        0x20001f04:    2109        .!      MOVS     r1,#9
        0x20001f06:    484b        KH      LDR      r0,[pc,#300] ; [0x20002034] = 0x200047e0
        0x20001f08:    f7feffe6    ....    BL       CalCRC8 ; 0x20000ed8
        0x20001f0c:    4949        II      LDR      r1,[pc,#292] ; [0x20002034] = 0x200047e0
        0x20001f0e:    7248        Hr      STRB     r0,[r1,#9]
        0x20001f10:    210a        .!      MOVS     r1,#0xa
        0x20001f12:    4848        HH      LDR      r0,[pc,#288] ; [0x20002034] = 0x200047e0
        0x20001f14:    f7fffe80    ....    BL       hs_data_send ; 0x20001c18
        0x20001f18:    e31b        ..      B        0x20002552 ; hs_protocol + 2360
        0x20001f1a:    4841        AH      LDR      r0,[pc,#260] ; [0x20002020] = 0x20004010
        0x20001f1c:    7a45        Ez      LDRB     r5,[r0,#9]
        0x20001f1e:    2201        ."      MOVS     r2,#1
        0x20001f20:    0292        ..      LSLS     r2,r2,#10
        0x20001f22:    4601        .F      MOV      r1,r0
        0x20001f24:    310b        .1      ADDS     r1,r1,#0xb
        0x20001f26:    a805        ..      ADD      r0,sp,#0x14
        0x20001f28:    f000fb2a    ..*.    BL       __aeabi_memcpy ; 0x20002580
        0x20001f2c:    483c        <H      LDR      r0,[pc,#240] ; [0x20002020] = 0x20004010
        0x20001f2e:    7a83        .z      LDRB     r3,[r0,#0xa]
        0x20001f30:    462a        *F      MOV      r2,r5
        0x20001f32:    2101        .!      MOVS     r1,#1
        0x20001f34:    0289        ..      LSLS     r1,r1,#10
        0x20001f36:    a805        ..      ADD      r0,sp,#0x14
        0x20001f38:    f7fffd88    ....    BL       IrisDownloadTemp ; 0x20001a4c
        0x20001f3c:    20e0        .       MOVS     r0,#0xe0
        0x20001f3e:    493d        =I      LDR      r1,[pc,#244] ; [0x20002034] = 0x200047e0
        0x20001f40:    7008        .p      STRB     r0,[r1,#0]
        0x20001f42:    200e        .       MOVS     r0,#0xe
        0x20001f44:    7048        Hp      STRB     r0,[r1,#1]
        0x20001f46:    2000        .       MOVS     r0,#0
        0x20001f48:    7088        .p      STRB     r0,[r1,#2]
        0x20001f4a:    200b        .       MOVS     r0,#0xb
        0x20001f4c:    70c8        .p      STRB     r0,[r1,#3]
        0x20001f4e:    4835        5H      LDR      r0,[pc,#212] ; [0x20002024] = 0x2000400e
        0x20001f50:    8800        ..      LDRH     r0,[r0,#0]
        0x20001f52:    1200        ..      ASRS     r0,r0,#8
        0x20001f54:    7108        .q      STRB     r0,[r1,#4]
        0x20001f56:    4833        3H      LDR      r0,[pc,#204] ; [0x20002024] = 0x2000400e
        0x20001f58:    7800        .x      LDRB     r0,[r0,#0]
        0x20001f5a:    7148        Hq      STRB     r0,[r1,#5]
        0x20001f5c:    2000        .       MOVS     r0,#0
        0x20001f5e:    7188        .q      STRB     r0,[r1,#6]
        0x20001f60:    71c8        .q      STRB     r0,[r1,#7]
        0x20001f62:    2001        .       MOVS     r0,#1
        0x20001f64:    7208        .r      STRB     r0,[r1,#8]
        0x20001f66:    4608        .F      MOV      r0,r1
        0x20001f68:    7245        Er      STRB     r5,[r0,#9]
        0x20001f6a:    210a        .!      MOVS     r1,#0xa
        0x20001f6c:    f7feffb4    ....    BL       CalCRC8 ; 0x20000ed8
        0x20001f70:    4930        0I      LDR      r1,[pc,#192] ; [0x20002034] = 0x200047e0
        0x20001f72:    7288        .r      STRB     r0,[r1,#0xa]
        0x20001f74:    210b        .!      MOVS     r1,#0xb
        0x20001f76:    482f        /H      LDR      r0,[pc,#188] ; [0x20002034] = 0x200047e0
        0x20001f78:    f7fffe4e    ..N.    BL       hs_data_send ; 0x20001c18
        0x20001f7c:    e2e9        ..      B        0x20002552 ; hs_protocol + 2360
        0x20001f7e:    4828        (H      LDR      r0,[pc,#160] ; [0x20002020] = 0x20004010
        0x20001f80:    7a45        Ez      LDRB     r5,[r0,#9]
        0x20001f82:    7a83        .z      LDRB     r3,[r0,#0xa]
        0x20001f84:    462a        *F      MOV      r2,r5
        0x20001f86:    2101        .!      MOVS     r1,#1
        0x20001f88:    0289        ..      LSLS     r1,r1,#10
        0x20001f8a:    a805        ..      ADD      r0,sp,#0x14
        0x20001f8c:    f7fffda4    ....    BL       IrisUploadTemp ; 0x20001ad8
        0x20001f90:    2201        ."      MOVS     r2,#1
        0x20001f92:    0292        ..      LSLS     r2,r2,#10
        0x20001f94:    a905        ..      ADD      r1,sp,#0x14
        0x20001f96:    4827        'H      LDR      r0,[pc,#156] ; [0x20002034] = 0x200047e0
        0x20001f98:    300b        .0      ADDS     r0,r0,#0xb
        0x20001f9a:    f000faf1    ....    BL       __aeabi_memcpy ; 0x20002580
        0x20001f9e:    20e0        .       MOVS     r0,#0xe0
        0x20001fa0:    4924        $I      LDR      r1,[pc,#144] ; [0x20002034] = 0x200047e0
        0x20001fa2:    7008        .p      STRB     r0,[r1,#0]
        0x20001fa4:    200e        .       MOVS     r0,#0xe
        0x20001fa6:    7048        Hp      STRB     r0,[r1,#1]
        0x20001fa8:    2004        .       MOVS     r0,#4
        0x20001faa:    7088        .p      STRB     r0,[r1,#2]
        0x20001fac:    200b        .       MOVS     r0,#0xb
        0x20001fae:    70c8        .p      STRB     r0,[r1,#3]
        0x20001fb0:    481c        .H      LDR      r0,[pc,#112] ; [0x20002024] = 0x2000400e
        0x20001fb2:    8800        ..      LDRH     r0,[r0,#0]
        0x20001fb4:    1200        ..      ASRS     r0,r0,#8
        0x20001fb6:    7108        .q      STRB     r0,[r1,#4]
        0x20001fb8:    481a        .H      LDR      r0,[pc,#104] ; [0x20002024] = 0x2000400e
        0x20001fba:    7800        .x      LDRB     r0,[r0,#0]
        0x20001fbc:    7148        Hq      STRB     r0,[r1,#5]
        0x20001fbe:    2000        .       MOVS     r0,#0
        0x20001fc0:    7188        .q      STRB     r0,[r1,#6]
        0x20001fc2:    2004        .       MOVS     r0,#4
        0x20001fc4:    71c8        .q      STRB     r0,[r1,#7]
        0x20001fc6:    2001        .       MOVS     r0,#1
        0x20001fc8:    7208        .r      STRB     r0,[r1,#8]
        0x20001fca:    4608        .F      MOV      r0,r1
        0x20001fcc:    7245        Er      STRB     r5,[r0,#9]
        0x20001fce:    491c        .I      LDR      r1,[pc,#112] ; [0x20002040] = 0x40a
        0x20001fd0:    f7feff82    ....    BL       CalCRC8 ; 0x20000ed8
        0x20001fd4:    491b        .I      LDR      r1,[pc,#108] ; [0x20002044] = 0x20004be0
        0x20001fd6:    7288        .r      STRB     r0,[r1,#0xa]
        0x20001fd8:    4919        .I      LDR      r1,[pc,#100] ; [0x20002040] = 0x40a
        0x20001fda:    1c49        I.      ADDS     r1,r1,#1
        0x20001fdc:    4815        .H      LDR      r0,[pc,#84] ; [0x20002034] = 0x200047e0
        0x20001fde:    f7fffe1b    ....    BL       hs_data_send ; 0x20001c18
        0x20001fe2:    e2b6        ..      B        0x20002552 ; hs_protocol + 2360
        0x20001fe4:    480e        .H      LDR      r0,[pc,#56] ; [0x20002020] = 0x20004010
        0x20001fe6:    7a40        @z      LDRB     r0,[r0,#9]
        0x20001fe8:    0200        ..      LSLS     r0,r0,#8
        0x20001fea:    490d        .I      LDR      r1,[pc,#52] ; [0x20002020] = 0x20004010
        0x20001fec:    7a89        .z      LDRB     r1,[r1,#0xa]
        0x20001fee:    4308        .C      ORRS     r0,r0,r1
        0x20001ff0:    4605        .F      MOV      r5,r0
        0x20001ff2:    2201        ."      MOVS     r2,#1
        0x20001ff4:    0292        ..      LSLS     r2,r2,#10
        0x20001ff6:    490a        .I      LDR      r1,[pc,#40] ; [0x20002020] = 0x20004010
        0x20001ff8:    310b        .1      ADDS     r1,r1,#0xb
        0x20001ffa:    a805        ..      ADD      r0,sp,#0x14
        0x20001ffc:    f000fac0    ....    BL       __aeabi_memcpy ; 0x20002580
        0x20002000:    462a        *F      MOV      r2,r5
        0x20002002:    2101        .!      MOVS     r1,#1
        0x20002004:    0289        ..      LSLS     r1,r1,#10
        0x20002006:    a805        ..      ADD      r0,sp,#0x14
        0x20002008:    f7fffdaa    ....    BL       IrisDownloadImag ; 0x20001b60
        0x2000200c:    20e0        .       MOVS     r0,#0xe0
        0x2000200e:    4909        .I      LDR      r1,[pc,#36] ; [0x20002034] = 0x200047e0
        0x20002010:    7008        .p      STRB     r0,[r1,#0]
        0x20002012:    200e        .       MOVS     r0,#0xe
        0x20002014:    7048        Hp      STRB     r0,[r1,#1]
        0x20002016:    2000        .       MOVS     r0,#0
        0x20002018:    7088        .p      STRB     r0,[r1,#2]
        0x2000201a:    e015        ..      B        0x20002048 ; hs_protocol + 1070
    $d
        0x2000201c:    20004000    .@.     DCD    536887296
        0x20002020:    20004010    .@.     DCD    536887312
        0x20002024:    2000400e    .@.     DCD    536887310
        0x20002028:    00000302    ....    DCD    770
        0x2000202c:    00000104    ....    DCD    260
        0x20002030:    ffff0504    ....    DCD    4294903044
        0x20002034:    200047e0    .G.     DCD    536889312
        0x20002038:    40009300    ...@    DCD    1073779456
        0x2000203c:    2000400c    .@.     DCD    536887308
        0x20002040:    0000040a    ....    DCD    1034
        0x20002044:    20004be0    .K.     DCD    536890336
    $t
        0x20002048:    200c        .       MOVS     r0,#0xc
        0x2000204a:    70c8        .p      STRB     r0,[r1,#3]
        0x2000204c:    48fe        .H      LDR      r0,[pc,#1016] ; [0x20002448] = 0x2000400e
        0x2000204e:    8800        ..      LDRH     r0,[r0,#0]
        0x20002050:    1200        ..      ASRS     r0,r0,#8
        0x20002052:    7108        .q      STRB     r0,[r1,#4]
        0x20002054:    48fc        .H      LDR      r0,[pc,#1008] ; [0x20002448] = 0x2000400e
        0x20002056:    7800        .x      LDRB     r0,[r0,#0]
        0x20002058:    7148        Hq      STRB     r0,[r1,#5]
        0x2000205a:    2000        .       MOVS     r0,#0
        0x2000205c:    7188        .q      STRB     r0,[r1,#6]
        0x2000205e:    71c8        .q      STRB     r0,[r1,#7]
        0x20002060:    7208        .r      STRB     r0,[r1,#8]
        0x20002062:    1228        (.      ASRS     r0,r5,#8
        0x20002064:    7248        Hr      STRB     r0,[r1,#9]
        0x20002066:    728d        .r      STRB     r5,[r1,#0xa]
        0x20002068:    210b        .!      MOVS     r1,#0xb
        0x2000206a:    48f8        .H      LDR      r0,[pc,#992] ; [0x2000244c] = 0x200047e0
        0x2000206c:    f7feff34    ..4.    BL       CalCRC8 ; 0x20000ed8
        0x20002070:    49f6        .I      LDR      r1,[pc,#984] ; [0x2000244c] = 0x200047e0
        0x20002072:    72c8        .r      STRB     r0,[r1,#0xb]
        0x20002074:    210c        .!      MOVS     r1,#0xc
        0x20002076:    48f5        .H      LDR      r0,[pc,#980] ; [0x2000244c] = 0x200047e0
        0x20002078:    f7fffdce    ....    BL       hs_data_send ; 0x20001c18
        0x2000207c:    e269        i.      B        0x20002552 ; hs_protocol + 2360
        0x2000207e:    48f4        .H      LDR      r0,[pc,#976] ; [0x20002450] = 0x20004010
        0x20002080:    7a40        @z      LDRB     r0,[r0,#9]
        0x20002082:    0200        ..      LSLS     r0,r0,#8
        0x20002084:    49f2        .I      LDR      r1,[pc,#968] ; [0x20002450] = 0x20004010
        0x20002086:    7a89        .z      LDRB     r1,[r1,#0xa]
        0x20002088:    4308        .C      ORRS     r0,r0,r1
        0x2000208a:    4605        .F      MOV      r5,r0
        0x2000208c:    462a        *F      MOV      r2,r5
        0x2000208e:    2101        .!      MOVS     r1,#1
        0x20002090:    0289        ..      LSLS     r1,r1,#10
        0x20002092:    a805        ..      ADD      r0,sp,#0x14
        0x20002094:    f7fffd88    ....    BL       IrisUploadImag ; 0x20001ba8
        0x20002098:    2201        ."      MOVS     r2,#1
        0x2000209a:    0292        ..      LSLS     r2,r2,#10
        0x2000209c:    a905        ..      ADD      r1,sp,#0x14
        0x2000209e:    48eb        .H      LDR      r0,[pc,#940] ; [0x2000244c] = 0x200047e0
        0x200020a0:    300b        .0      ADDS     r0,r0,#0xb
        0x200020a2:    f000fa6d    ..m.    BL       __aeabi_memcpy ; 0x20002580
        0x200020a6:    20e0        .       MOVS     r0,#0xe0
        0x200020a8:    49e8        .I      LDR      r1,[pc,#928] ; [0x2000244c] = 0x200047e0
        0x200020aa:    7008        .p      STRB     r0,[r1,#0]
        0x200020ac:    200e        .       MOVS     r0,#0xe
        0x200020ae:    7048        Hp      STRB     r0,[r1,#1]
        0x200020b0:    2004        .       MOVS     r0,#4
        0x200020b2:    7088        .p      STRB     r0,[r1,#2]
        0x200020b4:    200c        .       MOVS     r0,#0xc
        0x200020b6:    70c8        .p      STRB     r0,[r1,#3]
        0x200020b8:    48e3        .H      LDR      r0,[pc,#908] ; [0x20002448] = 0x2000400e
        0x200020ba:    8800        ..      LDRH     r0,[r0,#0]
        0x200020bc:    1200        ..      ASRS     r0,r0,#8
        0x200020be:    7108        .q      STRB     r0,[r1,#4]
        0x200020c0:    48e1        .H      LDR      r0,[pc,#900] ; [0x20002448] = 0x2000400e
        0x200020c2:    7800        .x      LDRB     r0,[r0,#0]
        0x200020c4:    7148        Hq      STRB     r0,[r1,#5]
        0x200020c6:    2000        .       MOVS     r0,#0
        0x200020c8:    7188        .q      STRB     r0,[r1,#6]
        0x200020ca:    2004        .       MOVS     r0,#4
        0x200020cc:    71c8        .q      STRB     r0,[r1,#7]
        0x200020ce:    2002        .       MOVS     r0,#2
        0x200020d0:    7208        .r      STRB     r0,[r1,#8]
        0x200020d2:    1228        (.      ASRS     r0,r5,#8
        0x200020d4:    7248        Hr      STRB     r0,[r1,#9]
        0x200020d6:    728d        .r      STRB     r5,[r1,#0xa]
        0x200020d8:    49de        .I      LDR      r1,[pc,#888] ; [0x20002454] = 0x40b
        0x200020da:    48dc        .H      LDR      r0,[pc,#880] ; [0x2000244c] = 0x200047e0
        0x200020dc:    f7fefefc    ....    BL       CalCRC8 ; 0x20000ed8
        0x200020e0:    49dd        .I      LDR      r1,[pc,#884] ; [0x20002458] = 0x20004be0
        0x200020e2:    72c8        .r      STRB     r0,[r1,#0xb]
        0x200020e4:    49db        .I      LDR      r1,[pc,#876] ; [0x20002454] = 0x40b
        0x200020e6:    1c49        I.      ADDS     r1,r1,#1
        0x200020e8:    48d8        .H      LDR      r0,[pc,#864] ; [0x2000244c] = 0x200047e0
        0x200020ea:    f7fffd95    ....    BL       hs_data_send ; 0x20001c18
        0x200020ee:    e230        0.      B        0x20002552 ; hs_protocol + 2360
        0x200020f0:    48d7        .H      LDR      r0,[pc,#860] ; [0x20002450] = 0x20004010
        0x200020f2:    7a40        @z      LDRB     r0,[r0,#9]
        0x200020f4:    a9ff        ..      ADD      r1,sp,#0x3fc
        0x200020f6:    3184        .1      ADDS     r1,r1,#0x84
        0x200020f8:    65c8        .e      STR      r0,[r1,#0x5c]
        0x200020fa:    48d5        .H      LDR      r0,[pc,#852] ; [0x20002450] = 0x20004010
        0x200020fc:    7a80        .z      LDRB     r0,[r0,#0xa]
        0x200020fe:    6588        .e      STR      r0,[r1,#0x58]
        0x20002100:    6dc9        .m      LDR      r1,[r1,#0x5c]
        0x20002102:    2001        .       MOVS     r0,#1
        0x20002104:    f7feff12    ....    BL       GPIO_Init ; 0x20000f2c
        0x20002108:    a9ff        ..      ADD      r1,sp,#0x3fc
        0x2000210a:    3184        .1      ADDS     r1,r1,#0x84
        0x2000210c:    6d88        .m      LDR      r0,[r1,#0x58]
        0x2000210e:    2800        .(      CMP      r0,#0
        0x20002110:    d004        ..      BEQ      0x2000211c ; hs_protocol + 1282
        0x20002112:    4608        .F      MOV      r0,r1
        0x20002114:    6dc0        .m      LDR      r0,[r0,#0x5c]
        0x20002116:    f7feff1b    ....    BL       GPIO_SetBit ; 0x20000f50
        0x2000211a:    e004        ..      B        0x20002126 ; hs_protocol + 1292
        0x2000211c:    a8ff        ..      ADD      r0,sp,#0x3fc
        0x2000211e:    3084        .0      ADDS     r0,r0,#0x84
        0x20002120:    6dc0        .m      LDR      r0,[r0,#0x5c]
        0x20002122:    f7feff25    ..%.    BL       GPIO_ResetBit ; 0x20000f70
        0x20002126:    20e0        .       MOVS     r0,#0xe0
        0x20002128:    49c8        .I      LDR      r1,[pc,#800] ; [0x2000244c] = 0x200047e0
        0x2000212a:    7008        .p      STRB     r0,[r1,#0]
        0x2000212c:    200e        .       MOVS     r0,#0xe
        0x2000212e:    7048        Hp      STRB     r0,[r1,#1]
        0x20002130:    2000        .       MOVS     r0,#0
        0x20002132:    7088        .p      STRB     r0,[r1,#2]
        0x20002134:    200a        .       MOVS     r0,#0xa
        0x20002136:    70c8        .p      STRB     r0,[r1,#3]
        0x20002138:    48c3        .H      LDR      r0,[pc,#780] ; [0x20002448] = 0x2000400e
        0x2000213a:    8800        ..      LDRH     r0,[r0,#0]
        0x2000213c:    1200        ..      ASRS     r0,r0,#8
        0x2000213e:    7108        .q      STRB     r0,[r1,#4]
        0x20002140:    48c1        .H      LDR      r0,[pc,#772] ; [0x20002448] = 0x2000400e
        0x20002142:    7800        .x      LDRB     r0,[r0,#0]
        0x20002144:    7148        Hq      STRB     r0,[r1,#5]
        0x20002146:    2000        .       MOVS     r0,#0
        0x20002148:    7188        .q      STRB     r0,[r1,#6]
        0x2000214a:    71c8        .q      STRB     r0,[r1,#7]
        0x2000214c:    7208        .r      STRB     r0,[r1,#8]
        0x2000214e:    2109        .!      MOVS     r1,#9
        0x20002150:    48be        .H      LDR      r0,[pc,#760] ; [0x2000244c] = 0x200047e0
        0x20002152:    f7fefec1    ....    BL       CalCRC8 ; 0x20000ed8
        0x20002156:    49bd        .I      LDR      r1,[pc,#756] ; [0x2000244c] = 0x200047e0
        0x20002158:    7248        Hr      STRB     r0,[r1,#9]
        0x2000215a:    210a        .!      MOVS     r1,#0xa
        0x2000215c:    48bb        .H      LDR      r0,[pc,#748] ; [0x2000244c] = 0x200047e0
        0x2000215e:    f7fffd5b    ..[.    BL       hs_data_send ; 0x20001c18
        0x20002162:    e1f6        ..      B        0x20002552 ; hs_protocol + 2360
        0x20002164:    48ba        .H      LDR      r0,[pc,#744] ; [0x20002450] = 0x20004010
        0x20002166:    7a41        Az      LDRB     r1,[r0,#9]
        0x20002168:    a8ff        ..      ADD      r0,sp,#0x3fc
        0x2000216a:    3084        .0      ADDS     r0,r0,#0x84
        0x2000216c:    65c1        .e      STR      r1,[r0,#0x5c]
        0x2000216e:    6dc1        .m      LDR      r1,[r0,#0x5c]
        0x20002170:    2000        .       MOVS     r0,#0
        0x20002172:    f7fefedb    ....    BL       GPIO_Init ; 0x20000f2c
        0x20002176:    a8ff        ..      ADD      r0,sp,#0x3fc
        0x20002178:    3084        .0      ADDS     r0,r0,#0x84
        0x2000217a:    6dc0        .m      LDR      r0,[r0,#0x5c]
        0x2000217c:    f7feff08    ....    BL       GPIO_ReadOutputDataBit ; 0x20000f90
        0x20002180:    49b6        .I      LDR      r1,[pc,#728] ; [0x2000245c] = 0x2000400c
        0x20002182:    7008        .p      STRB     r0,[r1,#0]
        0x20002184:    20e0        .       MOVS     r0,#0xe0
        0x20002186:    49b1        .I      LDR      r1,[pc,#708] ; [0x2000244c] = 0x200047e0
        0x20002188:    7008        .p      STRB     r0,[r1,#0]
        0x2000218a:    200e        .       MOVS     r0,#0xe
        0x2000218c:    7048        Hp      STRB     r0,[r1,#1]
        0x2000218e:    2000        .       MOVS     r0,#0
        0x20002190:    7088        .p      STRB     r0,[r1,#2]
        0x20002192:    200a        .       MOVS     r0,#0xa
        0x20002194:    70c8        .p      STRB     r0,[r1,#3]
        0x20002196:    48ac        .H      LDR      r0,[pc,#688] ; [0x20002448] = 0x2000400e
        0x20002198:    8800        ..      LDRH     r0,[r0,#0]
        0x2000219a:    1200        ..      ASRS     r0,r0,#8
        0x2000219c:    7108        .q      STRB     r0,[r1,#4]
        0x2000219e:    48aa        .H      LDR      r0,[pc,#680] ; [0x20002448] = 0x2000400e
        0x200021a0:    7800        .x      LDRB     r0,[r0,#0]
        0x200021a2:    7148        Hq      STRB     r0,[r1,#5]
        0x200021a4:    48ad        .H      LDR      r0,[pc,#692] ; [0x2000245c] = 0x2000400c
        0x200021a6:    7800        .x      LDRB     r0,[r0,#0]
        0x200021a8:    7188        .q      STRB     r0,[r1,#6]
        0x200021aa:    2000        .       MOVS     r0,#0
        0x200021ac:    71c8        .q      STRB     r0,[r1,#7]
        0x200021ae:    7208        .r      STRB     r0,[r1,#8]
        0x200021b0:    2109        .!      MOVS     r1,#9
        0x200021b2:    48a6        .H      LDR      r0,[pc,#664] ; [0x2000244c] = 0x200047e0
        0x200021b4:    f7fefe90    ....    BL       CalCRC8 ; 0x20000ed8
        0x200021b8:    49a4        .I      LDR      r1,[pc,#656] ; [0x2000244c] = 0x200047e0
        0x200021ba:    7248        Hr      STRB     r0,[r1,#9]
        0x200021bc:    210a        .!      MOVS     r1,#0xa
        0x200021be:    48a3        .H      LDR      r0,[pc,#652] ; [0x2000244c] = 0x200047e0
        0x200021c0:    f7fffd2a    ..*.    BL       hs_data_send ; 0x20001c18
        0x200021c4:    e1c5        ..      B        0x20002552 ; hs_protocol + 2360
        0x200021c6:    48a2        .H      LDR      r0,[pc,#648] ; [0x20002450] = 0x20004010
        0x200021c8:    7a40        @z      LDRB     r0,[r0,#9]
        0x200021ca:    0600        ..      LSLS     r0,r0,#24
        0x200021cc:    49a0        .I      LDR      r1,[pc,#640] ; [0x20002450] = 0x20004010
        0x200021ce:    7a89        .z      LDRB     r1,[r1,#0xa]
        0x200021d0:    0409        ..      LSLS     r1,r1,#16
        0x200021d2:    4308        .C      ORRS     r0,r0,r1
        0x200021d4:    499e        .I      LDR      r1,[pc,#632] ; [0x20002450] = 0x20004010
        0x200021d6:    7ac9        .z      LDRB     r1,[r1,#0xb]
        0x200021d8:    0209        ..      LSLS     r1,r1,#8
        0x200021da:    4308        .C      ORRS     r0,r0,r1
        0x200021dc:    499c        .I      LDR      r1,[pc,#624] ; [0x20002450] = 0x20004010
        0x200021de:    7b09        .{      LDRB     r1,[r1,#0xc]
        0x200021e0:    4308        .C      ORRS     r0,r0,r1
        0x200021e2:    4607        .F      MOV      r7,r0
        0x200021e4:    489a        .H      LDR      r0,[pc,#616] ; [0x20002450] = 0x20004010
        0x200021e6:    7b40        @{      LDRB     r0,[r0,#0xd]
        0x200021e8:    0600        ..      LSLS     r0,r0,#24
        0x200021ea:    4999        .I      LDR      r1,[pc,#612] ; [0x20002450] = 0x20004010
        0x200021ec:    7b89        .{      LDRB     r1,[r1,#0xe]
        0x200021ee:    0409        ..      LSLS     r1,r1,#16
        0x200021f0:    4308        .C      ORRS     r0,r0,r1
        0x200021f2:    4997        .I      LDR      r1,[pc,#604] ; [0x20002450] = 0x20004010
        0x200021f4:    7bc9        .{      LDRB     r1,[r1,#0xf]
        0x200021f6:    0209        ..      LSLS     r1,r1,#8
        0x200021f8:    4308        .C      ORRS     r0,r0,r1
        0x200021fa:    4995        .I      LDR      r1,[pc,#596] ; [0x20002450] = 0x20004010
        0x200021fc:    7c09        .|      LDRB     r1,[r1,#0x10]
        0x200021fe:    4301        .C      ORRS     r1,r1,r0
        0x20002200:    9101        ..      STR      r1,[sp,#4]
        0x20002202:    9801        ..      LDR      r0,[sp,#4]
        0x20002204:    6038        8`      STR      r0,[r7,#0]
        0x20002206:    20e0        .       MOVS     r0,#0xe0
        0x20002208:    4990        .I      LDR      r1,[pc,#576] ; [0x2000244c] = 0x200047e0
        0x2000220a:    7008        .p      STRB     r0,[r1,#0]
        0x2000220c:    200e        .       MOVS     r0,#0xe
        0x2000220e:    7048        Hp      STRB     r0,[r1,#1]
        0x20002210:    2000        .       MOVS     r0,#0
        0x20002212:    7088        .p      STRB     r0,[r1,#2]
        0x20002214:    200a        .       MOVS     r0,#0xa
        0x20002216:    70c8        .p      STRB     r0,[r1,#3]
        0x20002218:    488b        .H      LDR      r0,[pc,#556] ; [0x20002448] = 0x2000400e
        0x2000221a:    8800        ..      LDRH     r0,[r0,#0]
        0x2000221c:    1200        ..      ASRS     r0,r0,#8
        0x2000221e:    7108        .q      STRB     r0,[r1,#4]
        0x20002220:    4889        .H      LDR      r0,[pc,#548] ; [0x20002448] = 0x2000400e
        0x20002222:    7800        .x      LDRB     r0,[r0,#0]
        0x20002224:    7148        Hq      STRB     r0,[r1,#5]
        0x20002226:    2000        .       MOVS     r0,#0
        0x20002228:    7188        .q      STRB     r0,[r1,#6]
        0x2000222a:    71c8        .q      STRB     r0,[r1,#7]
        0x2000222c:    7208        .r      STRB     r0,[r1,#8]
        0x2000222e:    2109        .!      MOVS     r1,#9
        0x20002230:    4886        .H      LDR      r0,[pc,#536] ; [0x2000244c] = 0x200047e0
        0x20002232:    f7fefe51    ..Q.    BL       CalCRC8 ; 0x20000ed8
        0x20002236:    4985        .I      LDR      r1,[pc,#532] ; [0x2000244c] = 0x200047e0
        0x20002238:    7248        Hr      STRB     r0,[r1,#9]
        0x2000223a:    210a        .!      MOVS     r1,#0xa
        0x2000223c:    4883        .H      LDR      r0,[pc,#524] ; [0x2000244c] = 0x200047e0
        0x2000223e:    f7fffceb    ....    BL       hs_data_send ; 0x20001c18
        0x20002242:    e186        ..      B        0x20002552 ; hs_protocol + 2360
        0x20002244:    4882        .H      LDR      r0,[pc,#520] ; [0x20002450] = 0x20004010
        0x20002246:    7a40        @z      LDRB     r0,[r0,#9]
        0x20002248:    0600        ..      LSLS     r0,r0,#24
        0x2000224a:    4981        .I      LDR      r1,[pc,#516] ; [0x20002450] = 0x20004010
        0x2000224c:    7a89        .z      LDRB     r1,[r1,#0xa]
        0x2000224e:    0409        ..      LSLS     r1,r1,#16
        0x20002250:    4308        .C      ORRS     r0,r0,r1
        0x20002252:    497f        .I      LDR      r1,[pc,#508] ; [0x20002450] = 0x20004010
        0x20002254:    7ac9        .z      LDRB     r1,[r1,#0xb]
        0x20002256:    0209        ..      LSLS     r1,r1,#8
        0x20002258:    4308        .C      ORRS     r0,r0,r1
        0x2000225a:    497d        }I      LDR      r1,[pc,#500] ; [0x20002450] = 0x20004010
        0x2000225c:    7b09        .{      LDRB     r1,[r1,#0xc]
        0x2000225e:    4308        .C      ORRS     r0,r0,r1
        0x20002260:    4607        .F      MOV      r7,r0
        0x20002262:    487b        {H      LDR      r0,[pc,#492] ; [0x20002450] = 0x20004010
        0x20002264:    7b40        @{      LDRB     r0,[r0,#0xd]
        0x20002266:    0200        ..      LSLS     r0,r0,#8
        0x20002268:    4979        yI      LDR      r1,[pc,#484] ; [0x20002450] = 0x20004010
        0x2000226a:    7b89        .{      LDRB     r1,[r1,#0xe]
        0x2000226c:    4308        .C      ORRS     r0,r0,r1
        0x2000226e:    4606        .F      MOV      r6,r0
        0x20002270:    2400        .$      MOVS     r4,#0
        0x20002272:    e016        ..      B        0x200022a2 ; hs_protocol + 1672
        0x20002274:    00a0        ..      LSLS     r0,r4,#2
        0x20002276:    300f        .0      ADDS     r0,r0,#0xf
        0x20002278:    4975        uI      LDR      r1,[pc,#468] ; [0x20002450] = 0x20004010
        0x2000227a:    5c08        .\      LDRB     r0,[r1,r0]
        0x2000227c:    0600        ..      LSLS     r0,r0,#24
        0x2000227e:    00a1        ..      LSLS     r1,r4,#2
        0x20002280:    3110        .1      ADDS     r1,r1,#0x10
        0x20002282:    4a73        sJ      LDR      r2,[pc,#460] ; [0x20002450] = 0x20004010
        0x20002284:    5c51        Q\      LDRB     r1,[r2,r1]
        0x20002286:    0409        ..      LSLS     r1,r1,#16
        0x20002288:    4308        .C      ORRS     r0,r0,r1
        0x2000228a:    00a1        ..      LSLS     r1,r4,#2
        0x2000228c:    3111        .1      ADDS     r1,r1,#0x11
        0x2000228e:    5c51        Q\      LDRB     r1,[r2,r1]
        0x20002290:    0209        ..      LSLS     r1,r1,#8
        0x20002292:    4308        .C      ORRS     r0,r0,r1
        0x20002294:    00a1        ..      LSLS     r1,r4,#2
        0x20002296:    3112        .1      ADDS     r1,r1,#0x12
        0x20002298:    5c51        Q\      LDRB     r1,[r2,r1]
        0x2000229a:    4308        .C      ORRS     r0,r0,r1
        0x2000229c:    00a1        ..      LSLS     r1,r4,#2
        0x2000229e:    5078        xP      STR      r0,[r7,r1]
        0x200022a0:    1c64        d.      ADDS     r4,r4,#1
        0x200022a2:    42b4        .B      CMP      r4,r6
        0x200022a4:    d3e6        ..      BCC      0x20002274 ; hs_protocol + 1626
        0x200022a6:    20e0        .       MOVS     r0,#0xe0
        0x200022a8:    4968        hI      LDR      r1,[pc,#416] ; [0x2000244c] = 0x200047e0
        0x200022aa:    7008        .p      STRB     r0,[r1,#0]
        0x200022ac:    200e        .       MOVS     r0,#0xe
        0x200022ae:    7048        Hp      STRB     r0,[r1,#1]
        0x200022b0:    2000        .       MOVS     r0,#0
        0x200022b2:    7088        .p      STRB     r0,[r1,#2]
        0x200022b4:    200a        .       MOVS     r0,#0xa
        0x200022b6:    70c8        .p      STRB     r0,[r1,#3]
        0x200022b8:    4863        cH      LDR      r0,[pc,#396] ; [0x20002448] = 0x2000400e
        0x200022ba:    8800        ..      LDRH     r0,[r0,#0]
        0x200022bc:    1200        ..      ASRS     r0,r0,#8
        0x200022be:    7108        .q      STRB     r0,[r1,#4]
        0x200022c0:    4861        aH      LDR      r0,[pc,#388] ; [0x20002448] = 0x2000400e
        0x200022c2:    7800        .x      LDRB     r0,[r0,#0]
        0x200022c4:    7148        Hq      STRB     r0,[r1,#5]
        0x200022c6:    2000        .       MOVS     r0,#0
        0x200022c8:    7188        .q      STRB     r0,[r1,#6]
        0x200022ca:    71c8        .q      STRB     r0,[r1,#7]
        0x200022cc:    7208        .r      STRB     r0,[r1,#8]
        0x200022ce:    2109        .!      MOVS     r1,#9
        0x200022d0:    485e        ^H      LDR      r0,[pc,#376] ; [0x2000244c] = 0x200047e0
        0x200022d2:    f7fefe01    ....    BL       CalCRC8 ; 0x20000ed8
        0x200022d6:    495d        ]I      LDR      r1,[pc,#372] ; [0x2000244c] = 0x200047e0
        0x200022d8:    7248        Hr      STRB     r0,[r1,#9]
        0x200022da:    210a        .!      MOVS     r1,#0xa
        0x200022dc:    485b        [H      LDR      r0,[pc,#364] ; [0x2000244c] = 0x200047e0
        0x200022de:    f7fffc9b    ....    BL       hs_data_send ; 0x20001c18
        0x200022e2:    e136        6.      B        0x20002552 ; hs_protocol + 2360
        0x200022e4:    485a        ZH      LDR      r0,[pc,#360] ; [0x20002450] = 0x20004010
        0x200022e6:    7a40        @z      LDRB     r0,[r0,#9]
        0x200022e8:    0200        ..      LSLS     r0,r0,#8
        0x200022ea:    4959        YI      LDR      r1,[pc,#356] ; [0x20002450] = 0x20004010
        0x200022ec:    7a89        .z      LDRB     r1,[r1,#0xa]
        0x200022ee:    4308        .C      ORRS     r0,r0,r1
        0x200022f0:    9004        ..      STR      r0,[sp,#0x10]
        0x200022f2:    4857        WH      LDR      r0,[pc,#348] ; [0x20002450] = 0x20004010
        0x200022f4:    7ac0        .z      LDRB     r0,[r0,#0xb]
        0x200022f6:    0200        ..      LSLS     r0,r0,#8
        0x200022f8:    4955        UI      LDR      r1,[pc,#340] ; [0x20002450] = 0x20004010
        0x200022fa:    7b09        .{      LDRB     r1,[r1,#0xc]
        0x200022fc:    4308        .C      ORRS     r0,r0,r1
        0x200022fe:    9003        ..      STR      r0,[sp,#0xc]
        0x20002300:    9903        ..      LDR      r1,[sp,#0xc]
        0x20002302:    9804        ..      LDR      r0,[sp,#0x10]
        0x20002304:    f7feffc8    ....    BL       i2c1_wr_data ; 0x20001298
        0x20002308:    20e0        .       MOVS     r0,#0xe0
        0x2000230a:    4950        PI      LDR      r1,[pc,#320] ; [0x2000244c] = 0x200047e0
        0x2000230c:    7008        .p      STRB     r0,[r1,#0]
        0x2000230e:    200e        .       MOVS     r0,#0xe
        0x20002310:    7048        Hp      STRB     r0,[r1,#1]
        0x20002312:    2000        .       MOVS     r0,#0
        0x20002314:    7088        .p      STRB     r0,[r1,#2]
        0x20002316:    200a        .       MOVS     r0,#0xa
        0x20002318:    70c8        .p      STRB     r0,[r1,#3]
        0x2000231a:    484b        KH      LDR      r0,[pc,#300] ; [0x20002448] = 0x2000400e
        0x2000231c:    8800        ..      LDRH     r0,[r0,#0]
        0x2000231e:    1200        ..      ASRS     r0,r0,#8
        0x20002320:    7108        .q      STRB     r0,[r1,#4]
        0x20002322:    4849        IH      LDR      r0,[pc,#292] ; [0x20002448] = 0x2000400e
        0x20002324:    7800        .x      LDRB     r0,[r0,#0]
        0x20002326:    7148        Hq      STRB     r0,[r1,#5]
        0x20002328:    2000        .       MOVS     r0,#0
        0x2000232a:    7188        .q      STRB     r0,[r1,#6]
        0x2000232c:    71c8        .q      STRB     r0,[r1,#7]
        0x2000232e:    7208        .r      STRB     r0,[r1,#8]
        0x20002330:    2109        .!      MOVS     r1,#9
        0x20002332:    4846        FH      LDR      r0,[pc,#280] ; [0x2000244c] = 0x200047e0
        0x20002334:    f7fefdd0    ....    BL       CalCRC8 ; 0x20000ed8
        0x20002338:    4944        DI      LDR      r1,[pc,#272] ; [0x2000244c] = 0x200047e0
        0x2000233a:    7248        Hr      STRB     r0,[r1,#9]
        0x2000233c:    210a        .!      MOVS     r1,#0xa
        0x2000233e:    4843        CH      LDR      r0,[pc,#268] ; [0x2000244c] = 0x200047e0
        0x20002340:    f7fffc6a    ..j.    BL       hs_data_send ; 0x20001c18
        0x20002344:    e105        ..      B        0x20002552 ; hs_protocol + 2360
        0x20002346:    4842        BH      LDR      r0,[pc,#264] ; [0x20002450] = 0x20004010
        0x20002348:    7a40        @z      LDRB     r0,[r0,#9]
        0x2000234a:    0200        ..      LSLS     r0,r0,#8
        0x2000234c:    4940        @I      LDR      r1,[pc,#256] ; [0x20002450] = 0x20004010
        0x2000234e:    7a89        .z      LDRB     r1,[r1,#0xa]
        0x20002350:    4308        .C      ORRS     r0,r0,r1
        0x20002352:    9004        ..      STR      r0,[sp,#0x10]
        0x20002354:    9804        ..      LDR      r0,[sp,#0x10]
        0x20002356:    f7feffe9    ....    BL       i2c1_rd_data ; 0x2000132c
        0x2000235a:    9002        ..      STR      r0,[sp,#8]
        0x2000235c:    20e0        .       MOVS     r0,#0xe0
        0x2000235e:    493b        ;I      LDR      r1,[pc,#236] ; [0x2000244c] = 0x200047e0
        0x20002360:    7008        .p      STRB     r0,[r1,#0]
        0x20002362:    200e        .       MOVS     r0,#0xe
        0x20002364:    7048        Hp      STRB     r0,[r1,#1]
        0x20002366:    2000        .       MOVS     r0,#0
        0x20002368:    7088        .p      STRB     r0,[r1,#2]
        0x2000236a:    200c        .       MOVS     r0,#0xc
        0x2000236c:    70c8        .p      STRB     r0,[r1,#3]
        0x2000236e:    4836        6H      LDR      r0,[pc,#216] ; [0x20002448] = 0x2000400e
        0x20002370:    8800        ..      LDRH     r0,[r0,#0]
        0x20002372:    1200        ..      ASRS     r0,r0,#8
        0x20002374:    7108        .q      STRB     r0,[r1,#4]
        0x20002376:    4834        4H      LDR      r0,[pc,#208] ; [0x20002448] = 0x2000400e
        0x20002378:    7800        .x      LDRB     r0,[r0,#0]
        0x2000237a:    7148        Hq      STRB     r0,[r1,#5]
        0x2000237c:    2000        .       MOVS     r0,#0
        0x2000237e:    7188        .q      STRB     r0,[r1,#6]
        0x20002380:    71c8        .q      STRB     r0,[r1,#7]
        0x20002382:    2002        .       MOVS     r0,#2
        0x20002384:    7208        .r      STRB     r0,[r1,#8]
        0x20002386:    9802        ..      LDR      r0,[sp,#8]
        0x20002388:    1200        ..      ASRS     r0,r0,#8
        0x2000238a:    7248        Hr      STRB     r0,[r1,#9]
        0x2000238c:    9802        ..      LDR      r0,[sp,#8]
        0x2000238e:    7288        .r      STRB     r0,[r1,#0xa]
        0x20002390:    210b        .!      MOVS     r1,#0xb
        0x20002392:    482e        .H      LDR      r0,[pc,#184] ; [0x2000244c] = 0x200047e0
        0x20002394:    f7fefda0    ....    BL       CalCRC8 ; 0x20000ed8
        0x20002398:    492c        ,I      LDR      r1,[pc,#176] ; [0x2000244c] = 0x200047e0
        0x2000239a:    72c8        .r      STRB     r0,[r1,#0xb]
        0x2000239c:    210c        .!      MOVS     r1,#0xc
        0x2000239e:    482b        +H      LDR      r0,[pc,#172] ; [0x2000244c] = 0x200047e0
        0x200023a0:    f7fffc3a    ..:.    BL       hs_data_send ; 0x20001c18
        0x200023a4:    e0d5        ..      B        0x20002552 ; hs_protocol + 2360
        0x200023a6:    482a        *H      LDR      r0,[pc,#168] ; [0x20002450] = 0x20004010
        0x200023a8:    7a40        @z      LDRB     r0,[r0,#9]
        0x200023aa:    0600        ..      LSLS     r0,r0,#24
        0x200023ac:    4928        (I      LDR      r1,[pc,#160] ; [0x20002450] = 0x20004010
        0x200023ae:    7a89        .z      LDRB     r1,[r1,#0xa]
        0x200023b0:    0409        ..      LSLS     r1,r1,#16
        0x200023b2:    4308        .C      ORRS     r0,r0,r1
        0x200023b4:    4926        &I      LDR      r1,[pc,#152] ; [0x20002450] = 0x20004010
        0x200023b6:    7ac9        .z      LDRB     r1,[r1,#0xb]
        0x200023b8:    0209        ..      LSLS     r1,r1,#8
        0x200023ba:    4308        .C      ORRS     r0,r0,r1
        0x200023bc:    4924        $I      LDR      r1,[pc,#144] ; [0x20002450] = 0x20004010
        0x200023be:    7b09        .{      LDRB     r1,[r1,#0xc]
        0x200023c0:    4308        .C      ORRS     r0,r0,r1
        0x200023c2:    4607        .F      MOV      r7,r0
        0x200023c4:    6839        9h      LDR      r1,[r7,#0]
        0x200023c6:    9101        ..      STR      r1,[sp,#4]
        0x200023c8:    20e0        .       MOVS     r0,#0xe0
        0x200023ca:    4920         I      LDR      r1,[pc,#128] ; [0x2000244c] = 0x200047e0
        0x200023cc:    7008        .p      STRB     r0,[r1,#0]
        0x200023ce:    200e        .       MOVS     r0,#0xe
        0x200023d0:    7048        Hp      STRB     r0,[r1,#1]
        0x200023d2:    2000        .       MOVS     r0,#0
        0x200023d4:    7088        .p      STRB     r0,[r1,#2]
        0x200023d6:    200e        .       MOVS     r0,#0xe
        0x200023d8:    70c8        .p      STRB     r0,[r1,#3]
        0x200023da:    481b        .H      LDR      r0,[pc,#108] ; [0x20002448] = 0x2000400e
        0x200023dc:    8800        ..      LDRH     r0,[r0,#0]
        0x200023de:    1200        ..      ASRS     r0,r0,#8
        0x200023e0:    7108        .q      STRB     r0,[r1,#4]
        0x200023e2:    4819        .H      LDR      r0,[pc,#100] ; [0x20002448] = 0x2000400e
        0x200023e4:    7800        .x      LDRB     r0,[r0,#0]
        0x200023e6:    7148        Hq      STRB     r0,[r1,#5]
        0x200023e8:    2000        .       MOVS     r0,#0
        0x200023ea:    7188        .q      STRB     r0,[r1,#6]
        0x200023ec:    71c8        .q      STRB     r0,[r1,#7]
        0x200023ee:    2004        .       MOVS     r0,#4
        0x200023f0:    7208        .r      STRB     r0,[r1,#8]
        0x200023f2:    9801        ..      LDR      r0,[sp,#4]
        0x200023f4:    0e00        ..      LSRS     r0,r0,#24
        0x200023f6:    7248        Hr      STRB     r0,[r1,#9]
        0x200023f8:    9801        ..      LDR      r0,[sp,#4]
        0x200023fa:    0200        ..      LSLS     r0,r0,#8
        0x200023fc:    0e00        ..      LSRS     r0,r0,#24
        0x200023fe:    7288        .r      STRB     r0,[r1,#0xa]
        0x20002400:    9801        ..      LDR      r0,[sp,#4]
        0x20002402:    0400        ..      LSLS     r0,r0,#16
        0x20002404:    0e00        ..      LSRS     r0,r0,#24
        0x20002406:    72c8        .r      STRB     r0,[r1,#0xb]
        0x20002408:    9801        ..      LDR      r0,[sp,#4]
        0x2000240a:    7308        .s      STRB     r0,[r1,#0xc]
        0x2000240c:    210d        .!      MOVS     r1,#0xd
        0x2000240e:    480f        .H      LDR      r0,[pc,#60] ; [0x2000244c] = 0x200047e0
        0x20002410:    f7fefd62    ..b.    BL       CalCRC8 ; 0x20000ed8
        0x20002414:    490d        .I      LDR      r1,[pc,#52] ; [0x2000244c] = 0x200047e0
        0x20002416:    7348        Hs      STRB     r0,[r1,#0xd]
        0x20002418:    210e        .!      MOVS     r1,#0xe
        0x2000241a:    480c        .H      LDR      r0,[pc,#48] ; [0x2000244c] = 0x200047e0
        0x2000241c:    e000        ..      B        0x20002420 ; hs_protocol + 2054
        0x2000241e:    e0a3        ..      B        0x20002568 ; hs_protocol + 2382
        0x20002420:    f7fffbfa    ....    BL       hs_data_send ; 0x20001c18
        0x20002424:    e095        ..      B        0x20002552 ; hs_protocol + 2360
        0x20002426:    480a        .H      LDR      r0,[pc,#40] ; [0x20002450] = 0x20004010
        0x20002428:    7a40        @z      LDRB     r0,[r0,#9]
        0x2000242a:    0600        ..      LSLS     r0,r0,#24
        0x2000242c:    4908        .I      LDR      r1,[pc,#32] ; [0x20002450] = 0x20004010
        0x2000242e:    7a89        .z      LDRB     r1,[r1,#0xa]
        0x20002430:    0409        ..      LSLS     r1,r1,#16
        0x20002432:    4308        .C      ORRS     r0,r0,r1
        0x20002434:    4906        .I      LDR      r1,[pc,#24] ; [0x20002450] = 0x20004010
        0x20002436:    7ac9        .z      LDRB     r1,[r1,#0xb]
        0x20002438:    0209        ..      LSLS     r1,r1,#8
        0x2000243a:    4308        .C      ORRS     r0,r0,r1
        0x2000243c:    4904        .I      LDR      r1,[pc,#16] ; [0x20002450] = 0x20004010
        0x2000243e:    7b09        .{      LDRB     r1,[r1,#0xc]
        0x20002440:    4308        .C      ORRS     r0,r0,r1
        0x20002442:    4607        .F      MOV      r7,r0
        0x20002444:    4802        .H      LDR      r0,[pc,#8] ; [0x20002450] = 0x20004010
        0x20002446:    e00b        ..      B        0x20002460 ; hs_protocol + 2118
    $d
        0x20002448:    2000400e    .@.     DCD    536887310
        0x2000244c:    200047e0    .G.     DCD    536889312
        0x20002450:    20004010    .@.     DCD    536887312
        0x20002454:    0000040b    ....    DCD    1035
        0x20002458:    20004be0    .K.     DCD    536890336
        0x2000245c:    2000400c    .@.     DCD    536887308
    $t
        0x20002460:    7b40        @{      LDRB     r0,[r0,#0xd]
        0x20002462:    0200        ..      LSLS     r0,r0,#8
        0x20002464:    4941        AI      LDR      r1,[pc,#260] ; [0x2000256c] = 0x20004010
        0x20002466:    7b89        .{      LDRB     r1,[r1,#0xe]
        0x20002468:    4308        .C      ORRS     r0,r0,r1
        0x2000246a:    4606        .F      MOV      r6,r0
        0x2000246c:    20e0        .       MOVS     r0,#0xe0
        0x2000246e:    4940        @I      LDR      r1,[pc,#256] ; [0x20002570] = 0x200047e0
        0x20002470:    7008        .p      STRB     r0,[r1,#0]
        0x20002472:    200e        .       MOVS     r0,#0xe
        0x20002474:    7048        Hp      STRB     r0,[r1,#1]
        0x20002476:    00b0        ..      LSLS     r0,r6,#2
        0x20002478:    300a        .0      ADDS     r0,r0,#0xa
        0x2000247a:    0400        ..      LSLS     r0,r0,#16
        0x2000247c:    0e00        ..      LSRS     r0,r0,#24
        0x2000247e:    7088        .p      STRB     r0,[r1,#2]
        0x20002480:    00b0        ..      LSLS     r0,r6,#2
        0x20002482:    300a        .0      ADDS     r0,r0,#0xa
        0x20002484:    70c8        .p      STRB     r0,[r1,#3]
        0x20002486:    483b        ;H      LDR      r0,[pc,#236] ; [0x20002574] = 0x2000400e
        0x20002488:    8800        ..      LDRH     r0,[r0,#0]
        0x2000248a:    1200        ..      ASRS     r0,r0,#8
        0x2000248c:    7108        .q      STRB     r0,[r1,#4]
        0x2000248e:    4839        9H      LDR      r0,[pc,#228] ; [0x20002574] = 0x2000400e
        0x20002490:    7800        .x      LDRB     r0,[r0,#0]
        0x20002492:    7148        Hq      STRB     r0,[r1,#5]
        0x20002494:    2000        .       MOVS     r0,#0
        0x20002496:    7188        .q      STRB     r0,[r1,#6]
        0x20002498:    04b0        ..      LSLS     r0,r6,#18
        0x2000249a:    0e00        ..      LSRS     r0,r0,#24
        0x2000249c:    71c8        .q      STRB     r0,[r1,#7]
        0x2000249e:    06b0        ..      LSLS     r0,r6,#26
        0x200024a0:    0e00        ..      LSRS     r0,r0,#24
        0x200024a2:    7208        .r      STRB     r0,[r1,#8]
        0x200024a4:    2400        .$      MOVS     r4,#0
        0x200024a6:    e01c        ..      B        0x200024e2 ; hs_protocol + 2248
        0x200024a8:    e031        1.      B        0x2000250e ; hs_protocol + 2292
        0x200024aa:    00a0        ..      LSLS     r0,r4,#2
        0x200024ac:    5838        8X      LDR      r0,[r7,r0]
        0x200024ae:    0e01        ..      LSRS     r1,r0,#24
        0x200024b0:    00a0        ..      LSLS     r0,r4,#2
        0x200024b2:    3009        .0      ADDS     r0,r0,#9
        0x200024b4:    4a2e        .J      LDR      r2,[pc,#184] ; [0x20002570] = 0x200047e0
        0x200024b6:    5411        .T      STRB     r1,[r2,r0]
        0x200024b8:    00a0        ..      LSLS     r0,r4,#2
        0x200024ba:    5838        8X      LDR      r0,[r7,r0]
        0x200024bc:    0200        ..      LSLS     r0,r0,#8
        0x200024be:    0e01        ..      LSRS     r1,r0,#24
        0x200024c0:    00a0        ..      LSLS     r0,r4,#2
        0x200024c2:    300a        .0      ADDS     r0,r0,#0xa
        0x200024c4:    5411        .T      STRB     r1,[r2,r0]
        0x200024c6:    00a0        ..      LSLS     r0,r4,#2
        0x200024c8:    5838        8X      LDR      r0,[r7,r0]
        0x200024ca:    0400        ..      LSLS     r0,r0,#16
        0x200024cc:    0e01        ..      LSRS     r1,r0,#24
        0x200024ce:    00a0        ..      LSLS     r0,r4,#2
        0x200024d0:    300b        .0      ADDS     r0,r0,#0xb
        0x200024d2:    5411        .T      STRB     r1,[r2,r0]
        0x200024d4:    00a0        ..      LSLS     r0,r4,#2
        0x200024d6:    5838        8X      LDR      r0,[r7,r0]
        0x200024d8:    b2c1        ..      UXTB     r1,r0
        0x200024da:    00a0        ..      LSLS     r0,r4,#2
        0x200024dc:    300c        .0      ADDS     r0,r0,#0xc
        0x200024de:    5411        .T      STRB     r1,[r2,r0]
        0x200024e0:    1c64        d.      ADDS     r4,r4,#1
        0x200024e2:    42b4        .B      CMP      r4,r6
        0x200024e4:    d3e1        ..      BCC      0x200024aa ; hs_protocol + 2192
        0x200024e6:    1e70        p.      SUBS     r0,r6,#1
        0x200024e8:    0080        ..      LSLS     r0,r0,#2
        0x200024ea:    4601        .F      MOV      r1,r0
        0x200024ec:    310d        .1      ADDS     r1,r1,#0xd
        0x200024ee:    4820         H      LDR      r0,[pc,#128] ; [0x20002570] = 0x200047e0
        0x200024f0:    f7fefcf2    ....    BL       CalCRC8 ; 0x20000ed8
        0x200024f4:    1e71        q.      SUBS     r1,r6,#1
        0x200024f6:    0089        ..      LSLS     r1,r1,#2
        0x200024f8:    310d        .1      ADDS     r1,r1,#0xd
        0x200024fa:    4a1d        .J      LDR      r2,[pc,#116] ; [0x20002570] = 0x200047e0
        0x200024fc:    5450        PT      STRB     r0,[r2,r1]
        0x200024fe:    1e70        p.      SUBS     r0,r6,#1
        0x20002500:    0080        ..      LSLS     r0,r0,#2
        0x20002502:    4601        .F      MOV      r1,r0
        0x20002504:    310e        .1      ADDS     r1,r1,#0xe
        0x20002506:    4610        .F      MOV      r0,r2
        0x20002508:    f7fffb86    ....    BL       hs_data_send ; 0x20001c18
        0x2000250c:    e021        !.      B        0x20002552 ; hs_protocol + 2360
        0x2000250e:    20e0        .       MOVS     r0,#0xe0
        0x20002510:    4917        .I      LDR      r1,[pc,#92] ; [0x20002570] = 0x200047e0
        0x20002512:    7008        .p      STRB     r0,[r1,#0]
        0x20002514:    200e        .       MOVS     r0,#0xe
        0x20002516:    7048        Hp      STRB     r0,[r1,#1]
        0x20002518:    2000        .       MOVS     r0,#0
        0x2000251a:    7088        .p      STRB     r0,[r1,#2]
        0x2000251c:    200a        .       MOVS     r0,#0xa
        0x2000251e:    70c8        .p      STRB     r0,[r1,#3]
        0x20002520:    4814        .H      LDR      r0,[pc,#80] ; [0x20002574] = 0x2000400e
        0x20002522:    8800        ..      LDRH     r0,[r0,#0]
        0x20002524:    1200        ..      ASRS     r0,r0,#8
        0x20002526:    7108        .q      STRB     r0,[r1,#4]
        0x20002528:    4812        .H      LDR      r0,[pc,#72] ; [0x20002574] = 0x2000400e
        0x2000252a:    7800        .x      LDRB     r0,[r0,#0]
        0x2000252c:    7148        Hq      STRB     r0,[r1,#5]
        0x2000252e:    2000        .       MOVS     r0,#0
        0x20002530:    7188        .q      STRB     r0,[r1,#6]
        0x20002532:    71c8        .q      STRB     r0,[r1,#7]
        0x20002534:    7208        .r      STRB     r0,[r1,#8]
        0x20002536:    2109        .!      MOVS     r1,#9
        0x20002538:    480d        .H      LDR      r0,[pc,#52] ; [0x20002570] = 0x200047e0
        0x2000253a:    f7fefccd    ....    BL       CalCRC8 ; 0x20000ed8
        0x2000253e:    490c        .I      LDR      r1,[pc,#48] ; [0x20002570] = 0x200047e0
        0x20002540:    7248        Hr      STRB     r0,[r1,#9]
        0x20002542:    210a        .!      MOVS     r1,#0xa
        0x20002544:    480a        .H      LDR      r0,[pc,#40] ; [0x20002570] = 0x200047e0
        0x20002546:    e000        ..      B        0x2000254a ; hs_protocol + 2352
        0x20002548:    e002        ..      B        0x20002550 ; hs_protocol + 2358
        0x2000254a:    f7fffb65    ..e.    BL       hs_data_send ; 0x20001c18
        0x2000254e:    e000        ..      B        0x20002552 ; hs_protocol + 2360
        0x20002550:    bf00        ..      NOP      
        0x20002552:    bf00        ..      NOP      
        0x20002554:    2000        .       MOVS     r0,#0
        0x20002556:    4908        .I      LDR      r1,[pc,#32] ; [0x20002578] = 0x20004000
        0x20002558:    7008        .p      STRB     r0,[r1,#0]
        0x2000255a:    4908        .I      LDR      r1,[pc,#32] ; [0x2000257c] = 0x20004004
        0x2000255c:    6008        .`      STR      r0,[r1,#0]
        0x2000255e:    214b        K!      MOVS     r1,#0x4b
        0x20002560:    0109        ..      LSLS     r1,r1,#4
        0x20002562:    4802        .H      LDR      r0,[pc,#8] ; [0x2000256c] = 0x20004010
        0x20002564:    f000f869    ..i.    BL       __aeabi_memclr ; 0x2000263a
        0x20002568:    f7fffb5b    ..[.    BL       0x20001c22 ; hs_protocol + 8
    $d
        0x2000256c:    20004010    .@.     DCD    536887312
        0x20002570:    200047e0    .G.     DCD    536889312
        0x20002574:    2000400e    .@.     DCD    536887310
        0x20002578:    20004000    .@.     DCD    536887296
        0x2000257c:    20004004    .@.     DCD    536887300
    $t
    .text
    __aeabi_memcpy
    __rt_memcpy
        0x20002580:    b5f8        ..      PUSH     {r3-r7,lr}
        0x20002582:    2a04        .*      CMP      r2,#4
        0x20002584:    d32c        ,.      BCC      0x200025e0 ; __aeabi_memcpy + 96
        0x20002586:    0783        ..      LSLS     r3,r0,#30
        0x20002588:    d012        ..      BEQ      0x200025b0 ; __aeabi_memcpy + 48
        0x2000258a:    780b        .x      LDRB     r3,[r1,#0]
        0x2000258c:    1c49        I.      ADDS     r1,r1,#1
        0x2000258e:    7003        .p      STRB     r3,[r0,#0]
        0x20002590:    1c40        @.      ADDS     r0,r0,#1
        0x20002592:    1e52        R.      SUBS     r2,r2,#1
        0x20002594:    0783        ..      LSLS     r3,r0,#30
        0x20002596:    d00b        ..      BEQ      0x200025b0 ; __aeabi_memcpy + 48
        0x20002598:    780b        .x      LDRB     r3,[r1,#0]
        0x2000259a:    1c49        I.      ADDS     r1,r1,#1
        0x2000259c:    7003        .p      STRB     r3,[r0,#0]
        0x2000259e:    1c40        @.      ADDS     r0,r0,#1
        0x200025a0:    1e52        R.      SUBS     r2,r2,#1
        0x200025a2:    0783        ..      LSLS     r3,r0,#30
        0x200025a4:    d004        ..      BEQ      0x200025b0 ; __aeabi_memcpy + 48
        0x200025a6:    780b        .x      LDRB     r3,[r1,#0]
        0x200025a8:    1c49        I.      ADDS     r1,r1,#1
        0x200025aa:    7003        .p      STRB     r3,[r0,#0]
        0x200025ac:    1c40        @.      ADDS     r0,r0,#1
        0x200025ae:    1e52        R.      SUBS     r2,r2,#1
        0x200025b0:    078b        ..      LSLS     r3,r1,#30
        0x200025b2:    0f9b        ..      LSRS     r3,r3,#30
        0x200025b4:    d005        ..      BEQ      0x200025c2 ; __aeabi_memcpy + 66
        0x200025b6:    1ac9        ..      SUBS     r1,r1,r3
        0x200025b8:    00df        ..      LSLS     r7,r3,#3
        0x200025ba:    2320         #      MOVS     r3,#0x20
        0x200025bc:    1bde        ..      SUBS     r6,r3,r7
        0x200025be:    c908        ..      LDM      r1!,{r3}
        0x200025c0:    e00a        ..      B        0x200025d8 ; __aeabi_memcpy + 88
        0x200025c2:    f7fdfdc9    ....    BL       __aeabi_memcpy4 ; 0x20000158
        0x200025c6:    bdf8        ..      POP      {r3-r7,pc}
        0x200025c8:    461d        .F      MOV      r5,r3
        0x200025ca:    c908        ..      LDM      r1!,{r3}
        0x200025cc:    40fd        .@      LSRS     r5,r5,r7
        0x200025ce:    461c        .F      MOV      r4,r3
        0x200025d0:    40b4        .@      LSLS     r4,r4,r6
        0x200025d2:    432c        ,C      ORRS     r4,r4,r5
        0x200025d4:    c010        ..      STM      r0!,{r4}
        0x200025d6:    1f12        ..      SUBS     r2,r2,#4
        0x200025d8:    2a04        .*      CMP      r2,#4
        0x200025da:    d2f5        ..      BCS      0x200025c8 ; __aeabi_memcpy + 72
        0x200025dc:    08f3        ..      LSRS     r3,r6,#3
        0x200025de:    1ac9        ..      SUBS     r1,r1,r3
        0x200025e0:    1e52        R.      SUBS     r2,r2,#1
        0x200025e2:    d4f0        ..      BMI      0x200025c6 ; __aeabi_memcpy + 70
        0x200025e4:    780b        .x      LDRB     r3,[r1,#0]
        0x200025e6:    1c49        I.      ADDS     r1,r1,#1
        0x200025e8:    7003        .p      STRB     r3,[r0,#0]
        0x200025ea:    1c40        @.      ADDS     r0,r0,#1
        0x200025ec:    1e52        R.      SUBS     r2,r2,#1
        0x200025ee:    d4ea        ..      BMI      0x200025c6 ; __aeabi_memcpy + 70
        0x200025f0:    780b        .x      LDRB     r3,[r1,#0]
        0x200025f2:    1c49        I.      ADDS     r1,r1,#1
        0x200025f4:    7003        .p      STRB     r3,[r0,#0]
        0x200025f6:    1c40        @.      ADDS     r0,r0,#1
        0x200025f8:    2a01        .*      CMP      r2,#1
        0x200025fa:    d4e4        ..      BMI      0x200025c6 ; __aeabi_memcpy + 70
        0x200025fc:    7809        .x      LDRB     r1,[r1,#0]
        0x200025fe:    7001        .p      STRB     r1,[r0,#0]
        0x20002600:    bdf8        ..      POP      {r3-r7,pc}
    .text
    _memset_w
        0x20002602:    e001        ..      B        0x20002608 ; _memset_w + 6
        0x20002604:    c004        ..      STM      r0!,{r2}
        0x20002606:    1f09        ..      SUBS     r1,r1,#4
        0x20002608:    2904        .)      CMP      r1,#4
        0x2000260a:    d2fb        ..      BCS      0x20002604 ; _memset_w + 2
        0x2000260c:    078b        ..      LSLS     r3,r1,#30
        0x2000260e:    d501        ..      BPL      0x20002614 ; _memset_w + 18
        0x20002610:    8002        ..      STRH     r2,[r0,#0]
        0x20002612:    1c80        ..      ADDS     r0,r0,#2
        0x20002614:    07c9        ..      LSLS     r1,r1,#31
        0x20002616:    d000        ..      BEQ      0x2000261a ; _memset_w + 24
        0x20002618:    7002        .p      STRB     r2,[r0,#0]
        0x2000261a:    4770        pG      BX       lr
    _memset
        0x2000261c:    2900        .)      CMP      r1,#0
        0x2000261e:    d00b        ..      BEQ      0x20002638 ; _memset + 28
        0x20002620:    07c3        ..      LSLS     r3,r0,#31
        0x20002622:    d002        ..      BEQ      0x2000262a ; _memset + 14
        0x20002624:    7002        .p      STRB     r2,[r0,#0]
        0x20002626:    1c40        @.      ADDS     r0,r0,#1
        0x20002628:    1e49        I.      SUBS     r1,r1,#1
        0x2000262a:    2902        .)      CMP      r1,#2
        0x2000262c:    d304        ..      BCC      0x20002638 ; _memset + 28
        0x2000262e:    0783        ..      LSLS     r3,r0,#30
        0x20002630:    d502        ..      BPL      0x20002638 ; _memset + 28
        0x20002632:    8002        ..      STRH     r2,[r0,#0]
        0x20002634:    1c80        ..      ADDS     r0,r0,#2
        0x20002636:    1e89        ..      SUBS     r1,r1,#2
        0x20002638:    e7e3        ..      B        _memset_w ; 0x20002602
    __aeabi_memclr
    __rt_memclr
        0x2000263a:    2200        ."      MOVS     r2,#0
        0x2000263c:    e7ee        ..      B        _memset ; 0x2000261c
    __aeabi_memclr4
    __aeabi_memclr8
    __rt_memclr_w
        0x2000263e:    2200        ."      MOVS     r2,#0
        0x20002640:    e7df        ..      B        _memset_w ; 0x20002602
    .text
    __use_two_region_memory
        0x20002642:    4770        pG      BX       lr
    __rt_heap_escrow$2region
        0x20002644:    4770        pG      BX       lr
    __rt_heap_expand$2region
        0x20002646:    4770        pG      BX       lr
    .text
    __user_setup_stackheap
        0x20002648:    4675        uF      MOV      r5,lr
        0x2000264a:    f000f823    ..#.    BL       __user_libspace ; 0x20002694
        0x2000264e:    46ae        .F      MOV      lr,r5
        0x20002650:    0005        ..      MOVS     r5,r0
        0x20002652:    4669        iF      MOV      r1,sp
        0x20002654:    4653        SF      MOV      r3,r10
        0x20002656:    08c0        ..      LSRS     r0,r0,#3
        0x20002658:    00c0        ..      LSLS     r0,r0,#3
        0x2000265a:    4685        .F      MOV      sp,r0
        0x2000265c:    b018        ..      ADD      sp,sp,#0x60
        0x2000265e:    b520         .      PUSH     {r5,lr}
        0x20002660:    f7fdfda2    ....    BL       __user_initial_stackheap ; 0x200001a8
        0x20002664:    bc60        `.      POP      {r5,r6}
        0x20002666:    2700        .'      MOVS     r7,#0
        0x20002668:    0849        I.      LSRS     r1,r1,#1
        0x2000266a:    46b6        .F      MOV      lr,r6
        0x2000266c:    2600        .&      MOVS     r6,#0
        0x2000266e:    c5c0        ..      STM      r5!,{r6,r7}
        0x20002670:    c5c0        ..      STM      r5!,{r6,r7}
        0x20002672:    c5c0        ..      STM      r5!,{r6,r7}
        0x20002674:    c5c0        ..      STM      r5!,{r6,r7}
        0x20002676:    c5c0        ..      STM      r5!,{r6,r7}
        0x20002678:    c5c0        ..      STM      r5!,{r6,r7}
        0x2000267a:    c5c0        ..      STM      r5!,{r6,r7}
        0x2000267c:    c5c0        ..      STM      r5!,{r6,r7}
        0x2000267e:    3d40        @=      SUBS     r5,r5,#0x40
        0x20002680:    0049        I.      LSLS     r1,r1,#1
        0x20002682:    468d        .F      MOV      sp,r1
        0x20002684:    4770        pG      BX       lr
    .text
    exit
        0x20002686:    4604        .F      MOV      r4,r0
        0x20002688:    46c0        .F      MOV      r8,r8
        0x2000268a:    46c0        .F      MOV      r8,r8
        0x2000268c:    4620         F      MOV      r0,r4
        0x2000268e:    f7fdfd5c    ..\.    BL       __rt_exit ; 0x2000014a
        0x20002692:    0000        ..      MOVS     r0,r0
    .text
    __user_libspace
    __user_perproc_libspace
    __user_perthread_libspace
        0x20002694:    4800        .H      LDR      r0,[pc,#0] ; [0x20002698] = 0x20004fb0
        0x20002696:    4770        pG      BX       lr
    $d
        0x20002698:    20004fb0    .O.     DCD    536891312
    $t
    .text
    _sys_exit
        0x2000269c:    4901        .I      LDR      r1,[pc,#4] ; [0x200026a4] = 0x20026
        0x2000269e:    2018        .       MOVS     r0,#0x18
        0x200026a0:    beab        ..      BKPT     #0xab
        0x200026a2:    e7fe        ..      B        0x200026a2 ; _sys_exit + 6
    $d
        0x200026a4:    00020026    &...    DCD    131110
    $t
    .text
    __I$use$semihosting
    __use_no_semihosting_swi
        0x200026a8:    4770        pG      BX       lr
    i.__ARM_common_switch8
    .text
    __ARM_common_switch8
    __semihosting_library_function
        0x200026aa:    b430        0.      PUSH     {r4,r5}
        0x200026ac:    4674        tF      MOV      r4,lr
        0x200026ae:    1e64        d.      SUBS     r4,r4,#1
        0x200026b0:    7825        %x      LDRB     r5,[r4,#0]
        0x200026b2:    1c64        d.      ADDS     r4,r4,#1
        0x200026b4:    42ab        .B      CMP      r3,r5
        0x200026b6:    d304        ..      BCC      0x200026c2 ; __ARM_common_switch8 + 24
        0x200026b8:    5d63        c]      LDRB     r3,[r4,r5]
        0x200026ba:    005b        [.      LSLS     r3,r3,#1
        0x200026bc:    18e3        ..      ADDS     r3,r4,r3
        0x200026be:    bc30        0.      POP      {r4,r5}
        0x200026c0:    4718        .G      BX       r3
        0x200026c2:    461d        .F      MOV      r5,r3
        0x200026c4:    e7f8        ..      B        0x200026b8 ; __ARM_common_switch8 + 14
        0x200026c6:    0000        ..      MOVS     r0,r0
    $d.realdata
    Region$$Table$$Base
        0x200026c8:    20002708    .'.     DCD    536880904
        0x200026cc:    20004000    .@.     DCD    536887296
        0x200026d0:    00000010    ....    DCD    16
        0x200026d4:    200000f4    ...     DCD    536871156
        0x200026d8:    20002718    .'.     DCD    536880920
        0x200026dc:    20004010    .@.     DCD    536887312
        0x200026e0:    00001000    ....    DCD    4096
        0x200026e4:    20000110    ...     DCD    536871184
        0x200026e8:    20002718    .'.     DCD    536880920
        0x200026ec:    20018000    ...     DCD    536969216
        0x200026f0:    00000ff0    ....    DCD    4080
        0x200026f4:    20000110    ...     DCD    536871184
        0x200026f8:    20002718    .'.     DCD    536880920
        0x200026fc:    20017000    .p.     DCD    536965120
        0x20002700:    00001000    ....    DCD    4096
        0x20002704:    20000110    ...     DCD    536871184
    Region$$Table$$Limit

** Section #2 'DATA' (SHT_PROGBITS) [SHF_ALLOC + SHF_WRITE]
    Size   : 16 bytes (alignment 4)
    Address: 0x20004000


** Section #3 'DATA' (SHT_NOBITS) [SHF_ALLOC + SHF_WRITE]
    Size   : 4096 bytes (alignment 4)
    Address: 0x20004010


** Section #4 'STACK' (SHT_NOBITS) [SHF_ALLOC + SHF_WRITE]
    Size   : 4080 bytes (alignment 8)
    Address: 0x20018000


** Section #5 'HEAP' (SHT_NOBITS) [SHF_ALLOC + SHF_WRITE]
    Size   : 4096 bytes (alignment 8)
    Address: 0x20017000


** Section #6 '.debug_abbrev' (SHT_PROGBITS)
    Size   : 1476 bytes


** Section #7 '.debug_frame' (SHT_PROGBITS)
    Size   : 1784 bytes


** Section #8 '.debug_info' (SHT_PROGBITS)
    Size   : 10424 bytes


** Section #9 '.debug_line' (SHT_PROGBITS)
    Size   : 7032 bytes


** Section #10 '.debug_loc' (SHT_PROGBITS)
    Size   : 2348 bytes


** Section #11 '.debug_macinfo' (SHT_PROGBITS)
    Size   : 11464 bytes


** Section #12 '.debug_pubnames' (SHT_PROGBITS)
    Size   : 1322 bytes


** Section #13 '.symtab' (SHT_SYMTAB)
    Size   : 5344 bytes (alignment 4)
    String table #14 '.strtab'
    Last local symbol no. 194


** Section #14 '.strtab' (SHT_STRTAB)
    Size   : 4596 bytes


** Section #15 '.note' (SHT_NOTE)
    Size   : 36 bytes (alignment 4)


** Section #16 '.comment' (SHT_PROGBITS)
    Size   : 6960 bytes


** Section #17 '.shstrtab' (SHT_STRTAB)
    Size   : 156 bytes


